; generated by ARM C/C++ Compiler, 4.1 [Build 894]
; commandline ArmCC [--list --split_sections --debug -c --asm --interleave -o..\Output\menu.o --asm_dir=..\Listing\ --list_dir=..\Listing\ --depend=..\Output\menu.d --cpu=Cortex-M4.fp --apcs=interwork -O1 --diag_suppress=870 -I..\APP -I..\drive -I..\Include -I..\Libraries\CMSIS\inc -I..\Libraries\CMSIS\src -I..\Libraries\FWlib\inc -I..\Libraries\FWlib\src -I..\Listing -I..\Output -I..\Project -I..\STemWinLibrary522\Config -I..\STemWinLibrary522\emWinTask -I..\STemWinLibrary522\GUILib -I..\STemWinLibrary522\inc -I..\User -I..\USB\STM32_USB_HOST_Library\Class\HID\inc -I..\USB\STM32_USB_HOST_Library\Class\MSC\src -I..\USB\STM32_USB_HOST_Library\Core\src -I..\USB\USB_APP -I..\USB\STM32_USB_HOST_Library\Class\HID\src -I..\USB\STM32_USB_HOST_Library\Class\MSC\inc -I..\USB\STM32_USB_HOST_Library\Core\inc -I..\USB\STM32_USB_OTG_Driver\inc -I..\FATFS\exfuns -I..\FATFS\src\option -I..\FATFS\src -I..\MALLOC -ID:\Keil\ARM\RV31\Inc -ID:\Keil\ARM\CMSIS\Include -ID:\Keil\ARM\Inc\ST\STM32F4xx -DUSE_STDPERIPH_DRIVER -DSTM32F40XX -DUSE_USB_OTG_FS -DUSE_EMBEDDED_PHY -DUSE_USB_OTG_HS -DSTM32F40XX --omf_browse=..\Output\menu.crf ..\APP\menu.c]
                          THUMB

                          AREA ||i.CreateWindow||, CODE, READONLY, ALIGN=2

                  CreateWindow PROC
;;;425    
;;;426    WM_HWIN CreateWindow(void) {
000000  b51c              PUSH     {r2-r4,lr}
;;;427      page_sw = face_menu;
000002  4917              LDR      r1,|L1.96|
000004  2002              MOVS     r0,#2
000006  7008              STRB     r0,[r1,#0]
;;;428      track = face_menu;
000008  4916              LDR      r1,|L1.100|
00000a  7008              STRB     r0,[r1,#0]
;;;429      set_sw = set_10;
00000c  4916              LDR      r1,|L1.104|
00000e  2009              MOVS     r0,#9
000010  7008              STRB     r0,[r1,#0]
;;;430        SET_Voltage = pow_v;
000012  4816              LDR      r0,|L1.108|
000014  f8d01098          LDR      r1,[r0,#0x98]  ; Run_Control
000018  6041              STR      r1,[r0,#4]  ; Run_Control
;;;431      SET_Current = pow_c;
00001a  f8d010a0          LDR      r1,[r0,#0xa0]  ; Run_Control
00001e  6081              STR      r1,[r0,#8]  ; Run_Control
;;;432      pass = 0;
000020  4813              LDR      r0,|L1.112|
000022  2400              MOVS     r4,#0
000024  7004              STRB     r4,[r0,#0]
;;;433      mode_sw = mode_pow;
000026  4913              LDR      r1,|L1.116|
000028  2003              MOVS     r0,#3
00002a  7008              STRB     r0,[r1,#0]
;;;434      USART_SendData(USART3,1);//打开电源
00002c  2101              MOVS     r1,#1
00002e  4812              LDR      r0,|L1.120|
000030  f7fffffe          BL       USART_SendData
;;;435      TM1650_SET_LED(0x68,0x70);
000034  2170              MOVS     r1,#0x70
000036  2068              MOVS     r0,#0x68
000038  f7fffffe          BL       TM1650_SET_LED
;;;436      GPIO_ResetBits(GPIOD,GPIO_Pin_12);//灭灯
00003c  f44f5180          MOV      r1,#0x1000
000040  480e              LDR      r0,|L1.124|
000042  f7fffffe          BL       GPIO_ResetBits
;;;437      hWinWind = GUI_CreateDialogBox(_aDialogCreate1, GUI_COUNTOF(_aDialogCreate1), _cbDialog, WM_HBKWIN, 0, 0);
000046  f7fffffe          BL       WM_GetDesktopWindow
00004a  4603              MOV      r3,r0
00004c  9400              STR      r4,[sp,#0]
00004e  4a0c              LDR      r2,|L1.128|
000050  2113              MOVS     r1,#0x13
000052  480c              LDR      r0,|L1.132|
000054  9401              STR      r4,[sp,#4]
000056  f7fffffe          BL       GUI_CreateDialogBox
00005a  490b              LDR      r1,|L1.136|
00005c  6048              STR      r0,[r1,#4]  ; hWinWind
;;;438      return hWinWind;
;;;439    }
00005e  bd1c              POP      {r2-r4,pc}
;;;440    
                          ENDP

                  |L1.96|
                          DCD      page_sw
                  |L1.100|
                          DCD      track
                  |L1.104|
                          DCD      set_sw
                  |L1.108|
                          DCD      Run_Control
                  |L1.112|
                          DCD      pass
                  |L1.116|
                          DCD      mode_sw
                  |L1.120|
                          DCD      0x40004800
                  |L1.124|
                          DCD      0x40020c00
                  |L1.128|
                          DCD      _cbDialog
                  |L1.132|
                          DCD      ||.constdata||
                  |L1.136|
                          DCD      ||.data||

                          AREA ||i.INPUT_POW||, CODE, READONLY, ALIGN=2

                  INPUT_POW PROC
;;;646    void INPUT_POW(char* num);            
;;;647    void INPUT_POW(char* num){    
000000  e92d4ff1          PUSH     {r0,r4-r11,lr}
;;;648        switch(set_sw){
000004  48c3              LDR      r0,|L2.788|
000006  7801              LDRB     r1,[r0,#0]  ; set_sw
;;;649        case set_18:
;;;650            {
;;;651                WM_HWIN hItem;
;;;652    //            WM_InvalidateWindow(hWinWind);
;;;653                hItem = WM_GetDialogItem(hWinWind, ID_TEXT_41);
000008  48c3              LDR      r0,|L2.792|
;;;654                switch(bit){
;;;655                    case 1:
;;;656                    {
;;;657                        pow_v = atoi(num) * 100;
00000a  4dc4              LDR      r5,|L2.796|
;;;658                        strcat(set_limit,num);            
00000c  f8df8310          LDR      r8,|L2.800|
000010  6840              LDR      r0,[r0,#4]            ;653
000012  4fc4              LDR      r7,|L2.804|
;;;659                        TEXT_SetText(hItem,set_limit);
;;;660                        bit = 2;
;;;661                        break;
;;;662                    }
;;;663                    case 2:
;;;664                    {
;;;665                        strcat(set_limit,num);            
;;;666                        TEXT_SetText(hItem,set_limit);
;;;667                        if(set_limit[1] == 0x2e)//判断输入是否为小数点
;;;668                        {
;;;669                            dot_flag = 1;
000014  4ec4              LDR      r6,|L2.808|
000016  f04f0902          MOV      r9,#2                 ;660
00001a  f04f0a01          MOV      r10,#1
00001e  2911              CMP      r1,#0x11              ;648
000020  d011              BEQ      |L2.70|
000022  2912              CMP      r1,#0x12              ;648
000024  d12f              BNE      |L2.134|
;;;670                        }else{
;;;671                            pow_v = pow_v * 10 + atoi(num) * 100;
;;;672                        }
;;;673                        bit = 3;
;;;674                        break;
;;;675                    }
;;;676                    case 3:
;;;677                    {
;;;678                        strcat(set_limit,num);
;;;679                        TEXT_SetText(hItem,set_limit);
;;;680                        if(dot_flag == 0)
;;;681                        {
;;;682                            if(set_limit[2] == 0x2e)//判断输入是否为小数点
;;;683                            {                            
;;;684                                dot_flag = 2;
;;;685                            }else{
;;;686                                pow_v = /*3000*/ 6200;
;;;687                            }
;;;688                        }else{
;;;689                            pow_v = pow_v + atoi(num) * 10;
;;;690                        }
;;;691                                           
;;;692                        bit = 4;
;;;693                        break;
;;;694                    }
;;;695                    case 4:
;;;696                    {
;;;697                        strcat(set_limit,num);
;;;698                        TEXT_SetText(hItem,set_limit);
;;;699                        if(dot_flag == 0)
;;;700                        {
;;;701                            pow_v = /*3000*/ 6200;
;;;702                        }else if(dot_flag == 2){
;;;703                            pow_v = pow_v + atoi(num) * 10;
;;;704                        }else{
;;;705                            pow_v = pow_v + atoi(num);
;;;706                        }
;;;707                                           
;;;708                        bit = 5;
;;;709                        break;
;;;710                    }
;;;711                    case 5:
;;;712                    {
;;;713                        strcat(set_limit,num);
;;;714                        TEXT_SetText(hItem,set_limit);
;;;715                        if(dot_flag == 0)
;;;716                        {
;;;717                            pow_v = /*3000*/ 6200;
;;;718                        }else if(dot_flag == 1){
;;;719                            pow_v = pow_v;
;;;720                        }else{
;;;721                            pow_v = pow_v + atoi(num);
;;;722                        }
;;;723                                           
;;;724                        bit = 1;
;;;725                        break;
;;;726                    }
;;;727                }
;;;728                break;
;;;729            }
;;;730            case set_19:
;;;731            {
;;;732                WM_HWIN hItem;
;;;733    //            WM_InvalidateWindow(hWinWind);
;;;734                hItem = WM_GetDialogItem(hWinWind, ID_TEXT_42);
000026  f6400167          MOV      r1,#0x867
00002a  f7fffffe          BL       WM_GetDialogItem
00002e  4604              MOV      r4,r0
;;;735                switch(bit){
000030  7838              LDRB     r0,[r7,#0]  ; bit
;;;736    //                 case 1:
;;;737    //                 {
;;;738    //                     SET_Current = atoi(num) * 1000;
;;;739    //                     strcat(set_limit,num);            
;;;740    //                     TEXT_SetText(hItem,set_limit);
;;;741    //                     bit = 2;
;;;742    //                     break;
;;;743    //                 }
;;;744    //                 case 2:
;;;745    //                 {
;;;746    //                     strcat(set_limit,num);            
;;;747    //                     TEXT_SetText(hItem,set_limit);
;;;748    //                     if(set_limit[1] == 0x2e)//判断输入是否为小数点
;;;749    //                     {
;;;750    //                         dot_flag = 1;
;;;751    //                     }else{
;;;752    //                         SET_Current = 15000;
;;;753    //                     }
;;;754    //                     bit = 3;
;;;755    //                     break;
;;;756    //                 }
;;;757    //                 case 3:
;;;758    //                 {
;;;759    //                     strcat(set_limit,num);
;;;760    //                     TEXT_SetText(hItem,set_limit);
;;;761    //                     if(dot_flag == 0)
;;;762    //                     {                                                                       
;;;763    //                         SET_Current = 15000;
;;;764    //                     }else{
;;;765    //                         SET_Current = SET_Current + atoi(num) * 100;
;;;766    //                     }                                       
;;;767    //                     bit = 4;
;;;768    //                     break;
;;;769    //                 }
;;;770    //                 case 4:
;;;771    //                 {
;;;772    //                     strcat(set_limit,num);
;;;773    //                     TEXT_SetText(hItem,set_limit);
;;;774    //                     if(dot_flag == 0)
;;;775    //                     {
;;;776    //                         SET_Current = 15000;
;;;777    //                     }else{
;;;778    //                         SET_Current = SET_Current + atoi(num) * 10;
;;;779    //                     }
;;;780    //                                        
;;;781    //                     bit = 1;
;;;782    //                     break;
;;;783    //                 }
;;;784                    case 1:
;;;785                    {
;;;786                        pow_c = atoi(num) * 1000;
;;;787                        strcat(set_limit,num);            
;;;788                        TEXT_SetText(hItem,set_limit);
;;;789                        bit = 2;
;;;790                        break;
;;;791                    }
;;;792                    case 2:
;;;793                    {
;;;794                        strcat(set_limit,num);            
;;;795                        TEXT_SetText(hItem,set_limit);
;;;796                        if(set_limit[1] == 0x2e)//判断输入是否为小数点
;;;797                        {
;;;798                            dot_flag = 1;
;;;799                        }else{
;;;800                            pow_c = pow_c * 10 + atoi(num) * 1000;
;;;801                        }
;;;802                        bit = 3;
;;;803                        break;
;;;804                    }
;;;805                    case 3:
;;;806                    {
;;;807                        strcat(set_limit,num);
;;;808                        TEXT_SetText(hItem,set_limit);
;;;809                        if(dot_flag == 0)
;;;810                        {
;;;811                            if(set_limit[2] == 0x2e)//判断输入是否为小数点
;;;812                            {                            
;;;813                                dot_flag = 2;
;;;814                            }else{
;;;815                                pow_c = 5000;
000032  f2413b88          MOV      r11,#0x1388
000036  2807              CMP      r0,#7                 ;735
000038  d225              BCS      |L2.134|
00003a  e8dff000          TBB      [pc,r0]               ;735
00003e  24a8              DCB      0x24,0xa8
000040  bbdaf5f4          DCB      0xbb,0xda,0xf5,0xf4
000044  f300              DCB      0xf3,0x00
                  |L2.70|
000046  f6400166          MOV      r1,#0x866             ;653
00004a  f7fffffe          BL       WM_GetDialogItem
00004e  4604              MOV      r4,r0                 ;653
000050  7838              LDRB     r0,[r7,#0]            ;654  ; bit
000052  f6410b38          MOV      r11,#0x1838           ;686
000056  2806              CMP      r0,#6                 ;654
000058  d215              BCS      |L2.134|
00005a  e8dff000          TBB      [pc,r0]               ;654
00005e  1403              DCB      0x14,0x03
000060  1634557a          DCB      0x16,0x34,0x55,0x7a
000064  9800              LDR      r0,[sp,#0]            ;657
000066  f7fffffe          BL       atoi
00006a  2164              MOVS     r1,#0x64              ;657
00006c  4348              MULS     r0,r1,r0              ;657
00006e  f8c50098          STR      r0,[r5,#0x98]         ;657  ; Run_Control
000072  48ab              LDR      r0,|L2.800|
000074  9900              LDR      r1,[sp,#0]            ;658
000076  f7fffffe          BL       strcat
00007a  49a9              LDR      r1,|L2.800|
00007c  4620              MOV      r0,r4                 ;659
00007e  f7fffffe          BL       TEXT_SetText
000082  f8879000          STRB     r9,[r7,#0]            ;660
                  |L2.134|
;;;816                            }
;;;817                        }else{
;;;818                            pow_c = pow_c + atoi(num) * 100;
;;;819                        }
;;;820                                           
;;;821                        bit = 4;
;;;822                        break;
;;;823                    }
;;;824                    case 4:
;;;825                    {
;;;826                        strcat(set_limit,num);
;;;827                        TEXT_SetText(hItem,set_limit);
;;;828                        if(dot_flag == 0)
;;;829                        {
;;;830                            pow_c = 5000;
;;;831                        }else if(dot_flag == 2){
;;;832                            pow_c = pow_c + atoi(num) * 100;
;;;833                        }else{
;;;834                            pow_c = pow_c + atoi(num) * 10;
;;;835                        }
;;;836                                           
;;;837                        bit = 5;
;;;838                        break;
;;;839                    }
;;;840                    case 5:
;;;841                    {
;;;842                        strcat(set_limit,num);
;;;843                        TEXT_SetText(hItem,set_limit);
;;;844                        if(dot_flag == 0)
;;;845                        {
;;;846                            pow_c = 5000;
;;;847                        }else if(dot_flag == 1){
;;;848                            pow_c = pow_c + atoi(num);
;;;849                        }else{
;;;850                            pow_c = pow_c + atoi(num) * 10;
;;;851                        }
;;;852                                           
;;;853                        bit = 6;
;;;854                        break;
;;;855                    }
;;;856                    case 6:
;;;857                    {
;;;858                        strcat(set_limit,num);
;;;859                        TEXT_SetText(hItem,set_limit);
;;;860                        if(dot_flag == 0)
;;;861                        {
;;;862                            pow_c = 0;
;;;863                        }else if(dot_flag == 2){
;;;864                            pow_c = pow_c + atoi(num);
;;;865                        }                 
;;;866                        bit = 1;
;;;867                        break;
;;;868                    }
;;;869                }
;;;870            }
;;;871            break;
;;;872        }    
;;;873    }
000086  e8bd8ff8          POP      {r3-r11,pc}
00008a  48a5              LDR      r0,|L2.800|
00008c  9900              LDR      r1,[sp,#0]            ;665
00008e  f7fffffe          BL       strcat
000092  49a3              LDR      r1,|L2.800|
000094  4620              MOV      r0,r4                 ;666
000096  f7fffffe          BL       TEXT_SetText
00009a  f8980001          LDRB     r0,[r8,#1]            ;667  ; set_limit
00009e  282e              CMP      r0,#0x2e              ;667
0000a0  d00e              BEQ      |L2.192|
0000a2  9800              LDR      r0,[sp,#0]            ;671
0000a4  f7fffffe          BL       atoi
0000a8  2164              MOVS     r1,#0x64              ;671
0000aa  4348              MULS     r0,r1,r0              ;671
0000ac  f8551f98          LDR      r1,[r5,#0x98]!        ;671  ; Run_Control
0000b0  eb010181          ADD      r1,r1,r1,LSL #2       ;671
0000b4  eb000041          ADD      r0,r0,r1,LSL #1       ;671
0000b8  6028              STR      r0,[r5,#0]            ;671  ; Run_Control
                  |L2.186|
0000ba  2003              MOVS     r0,#3                 ;673
0000bc  7038              STRB     r0,[r7,#0]            ;673
0000be  e7e2              B        |L2.134|
                  |L2.192|
0000c0  f886a000          STRB     r10,[r6,#0]           ;669
0000c4  e7f9              B        |L2.186|
0000c6  4896              LDR      r0,|L2.800|
0000c8  9900              LDR      r1,[sp,#0]            ;678
0000ca  f7fffffe          BL       strcat
0000ce  4994              LDR      r1,|L2.800|
0000d0  4620              MOV      r0,r4                 ;679
0000d2  f7fffffe          BL       TEXT_SetText
0000d6  7830              LDRB     r0,[r6,#0]            ;680  ; dot_flag
0000d8  b160              CBZ      r0,|L2.244|
0000da  9800              LDR      r0,[sp,#0]            ;689
0000dc  f7fffffe          BL       atoi
0000e0  eb000180          ADD      r1,r0,r0,LSL #2       ;689
0000e4  f8550f98          LDR      r0,[r5,#0x98]!        ;689  ; Run_Control
0000e8  eb000041          ADD      r0,r0,r1,LSL #1       ;689
0000ec  6028              STR      r0,[r5,#0]            ;689  ; Run_Control
                  |L2.238|
0000ee  2004              MOVS     r0,#4                 ;692
0000f0  7038              STRB     r0,[r7,#0]            ;692
0000f2  e7c8              B        |L2.134|
                  |L2.244|
0000f4  f8980002          LDRB     r0,[r8,#2]            ;682  ; set_limit
0000f8  282e              CMP      r0,#0x2e              ;682
0000fa  d002              BEQ      |L2.258|
0000fc  f8c5b098          STR      r11,[r5,#0x98]        ;686  ; Run_Control
000100  e7f5              B        |L2.238|
                  |L2.258|
000102  f8869000          STRB     r9,[r6,#0]            ;684
000106  e7f2              B        |L2.238|
000108  4885              LDR      r0,|L2.800|
00010a  9900              LDR      r1,[sp,#0]            ;697
00010c  f7fffffe          BL       strcat
000110  4983              LDR      r1,|L2.800|
000112  4620              MOV      r0,r4                 ;698
000114  f7fffffe          BL       TEXT_SetText
000118  7830              LDRB     r0,[r6,#0]            ;699  ; dot_flag
00011a  b160              CBZ      r0,|L2.310|
00011c  7830              LDRB     r0,[r6,#0]            ;702  ; dot_flag
00011e  2802              CMP      r0,#2                 ;702
000120  d00c              BEQ      |L2.316|
000122  9800              LDR      r0,[sp,#0]            ;705
000124  f7fffffe          BL       atoi
000128  f8551f98          LDR      r1,[r5,#0x98]!        ;705  ; Run_Control
00012c  4408              ADD      r0,r0,r1              ;705
00012e  6028              STR      r0,[r5,#0]            ;705  ; Run_Control
                  |L2.304|
000130  2005              MOVS     r0,#5                 ;708
000132  7038              STRB     r0,[r7,#0]            ;708
000134  e7a7              B        |L2.134|
                  |L2.310|
000136  f8c5b098          STR      r11,[r5,#0x98]        ;701  ; Run_Control
00013a  e7f9              B        |L2.304|
                  |L2.316|
00013c  9800              LDR      r0,[sp,#0]            ;703
00013e  f7fffffe          BL       atoi
000142  f8551f98          LDR      r1,[r5,#0x98]!        ;703  ; Run_Control
000146  eb000080          ADD      r0,r0,r0,LSL #2       ;703
00014a  eb010040          ADD      r0,r1,r0,LSL #1       ;703
00014e  6028              STR      r0,[r5,#0]            ;703  ; Run_Control
000150  e7ee              B        |L2.304|
000152  4873              LDR      r0,|L2.800|
000154  9900              LDR      r1,[sp,#0]            ;713
000156  f7fffffe          BL       strcat
00015a  4971              LDR      r1,|L2.800|
00015c  4620              MOV      r0,r4                 ;714
00015e  f7fffffe          BL       TEXT_SetText
000162  7830              LDRB     r0,[r6,#0]            ;715  ; dot_flag
000164  b160              CBZ      r0,|L2.384|
000166  7830              LDRB     r0,[r6,#0]            ;718  ; dot_flag
000168  2801              CMP      r0,#1                 ;718
00016a  d00c              BEQ      |L2.390|
00016c  9800              LDR      r0,[sp,#0]            ;721
00016e  f7fffffe          BL       atoi
000172  f8551f98          LDR      r1,[r5,#0x98]!        ;721  ; Run_Control
000176  4408              ADD      r0,r0,r1              ;721
000178  6028              STR      r0,[r5,#0]            ;721  ; Run_Control
                  |L2.378|
00017a  f887a000          STRB     r10,[r7,#0]           ;724
00017e  e782              B        |L2.134|
                  |L2.384|
000180  f8c5b098          STR      r11,[r5,#0x98]        ;717  ; Run_Control
000184  e7f9              B        |L2.378|
                  |L2.390|
000186  f8550f98          LDR      r0,[r5,#0x98]!        ;719  ; Run_Control
00018a  6028              STR      r0,[r5,#0]            ;719  ; Run_Control
00018c  e7f5              B        |L2.378|
00018e  9800              LDR      r0,[sp,#0]            ;786
000190  f7fffffe          BL       atoi
000194  f44f717a          MOV      r1,#0x3e8             ;786
000198  4348              MULS     r0,r1,r0              ;786
00019a  f8c500a0          STR      r0,[r5,#0xa0]         ;786  ; Run_Control
00019e  4860              LDR      r0,|L2.800|
0001a0  9900              LDR      r1,[sp,#0]            ;787
0001a2  f7fffffe          BL       strcat
0001a6  495e              LDR      r1,|L2.800|
0001a8  4620              MOV      r0,r4                 ;788
0001aa  f7fffffe          BL       TEXT_SetText
0001ae  f8879000          STRB     r9,[r7,#0]            ;789
0001b2  e768              B        |L2.134|
0001b4  485a              LDR      r0,|L2.800|
0001b6  9900              LDR      r1,[sp,#0]            ;794
0001b8  f7fffffe          BL       strcat
0001bc  4958              LDR      r1,|L2.800|
0001be  4620              MOV      r0,r4                 ;795
0001c0  f7fffffe          BL       TEXT_SetText
0001c4  f8980001          LDRB     r0,[r8,#1]            ;796  ; set_limit
0001c8  282e              CMP      r0,#0x2e              ;796
0001ca  d00f              BEQ      |L2.492|
0001cc  9800              LDR      r0,[sp,#0]            ;800
0001ce  f7fffffe          BL       atoi
0001d2  f44f717a          MOV      r1,#0x3e8             ;800
0001d6  4348              MULS     r0,r1,r0              ;800
0001d8  f8551fa0          LDR      r1,[r5,#0xa0]!        ;800  ; Run_Control
0001dc  eb010181          ADD      r1,r1,r1,LSL #2       ;800
0001e0  eb000041          ADD      r0,r0,r1,LSL #1       ;800
0001e4  6028              STR      r0,[r5,#0]            ;800  ; Run_Control
                  |L2.486|
0001e6  2003              MOVS     r0,#3                 ;802
0001e8  7038              STRB     r0,[r7,#0]            ;802
0001ea  e74c              B        |L2.134|
                  |L2.492|
0001ec  f886a000          STRB     r10,[r6,#0]           ;798
0001f0  e7f9              B        |L2.486|
0001f2  484b              LDR      r0,|L2.800|
0001f4  9900              LDR      r1,[sp,#0]            ;807
0001f6  f7fffffe          BL       strcat
0001fa  4949              LDR      r1,|L2.800|
0001fc  4620              MOV      r0,r4                 ;808
0001fe  f7fffffe          BL       TEXT_SetText
000202  7830              LDRB     r0,[r6,#0]            ;809  ; dot_flag
000204  b188              CBZ      r0,|L2.554|
000206  9800              LDR      r0,[sp,#0]            ;818
000208  f7fffffe          BL       atoi
00020c  eb0001c0          ADD      r1,r0,r0,LSL #3       ;818
000210  eb011000          ADD      r0,r1,r0,LSL #4       ;818
000214  f8551fa0          LDR      r1,[r5,#0xa0]!        ;818  ; Run_Control
000218  eb010080          ADD      r0,r1,r0,LSL #2       ;818
00021c  6028              STR      r0,[r5,#0]            ;818  ; Run_Control
                  |L2.542|
00021e  2004              MOVS     r0,#4                 ;821
000220  7038              STRB     r0,[r7,#0]            ;821
000222  e730              B        |L2.134|
000224  e05a              B        |L2.732|
000226  e034              B        |L2.658|
000228  e009              B        |L2.574|
                  |L2.554|
00022a  f8980002          LDRB     r0,[r8,#2]            ;811  ; set_limit
00022e  282e              CMP      r0,#0x2e              ;811
000230  d002              BEQ      |L2.568|
000232  f8c5b0a0          STR      r11,[r5,#0xa0]        ;815  ; Run_Control
000236  e7f2              B        |L2.542|
                  |L2.568|
000238  f8869000          STRB     r9,[r6,#0]            ;813
00023c  e7ef              B        |L2.542|
                  |L2.574|
00023e  4838              LDR      r0,|L2.800|
000240  9900              LDR      r1,[sp,#0]            ;826
000242  f7fffffe          BL       strcat
000246  4936              LDR      r1,|L2.800|
000248  4620              MOV      r0,r4                 ;827
00024a  f7fffffe          BL       TEXT_SetText
00024e  7830              LDRB     r0,[r6,#0]            ;828  ; dot_flag
000250  b178              CBZ      r0,|L2.626|
000252  7830              LDRB     r0,[r6,#0]            ;831  ; dot_flag
000254  2802              CMP      r0,#2                 ;831
000256  d00f              BEQ      |L2.632|
000258  9800              LDR      r0,[sp,#0]            ;834
00025a  f7fffffe          BL       atoi
00025e  f8551fa0          LDR      r1,[r5,#0xa0]!        ;834  ; Run_Control
000262  eb000080          ADD      r0,r0,r0,LSL #2       ;834
000266  eb010040          ADD      r0,r1,r0,LSL #1       ;834
00026a  6028              STR      r0,[r5,#0]            ;834  ; Run_Control
                  |L2.620|
00026c  2005              MOVS     r0,#5                 ;837
00026e  7038              STRB     r0,[r7,#0]            ;837
000270  e709              B        |L2.134|
                  |L2.626|
000272  f8c5b0a0          STR      r11,[r5,#0xa0]        ;830  ; Run_Control
000276  e7f9              B        |L2.620|
                  |L2.632|
000278  9800              LDR      r0,[sp,#0]            ;832
00027a  f7fffffe          BL       atoi
00027e  eb0001c0          ADD      r1,r0,r0,LSL #3       ;832
000282  eb011000          ADD      r0,r1,r0,LSL #4       ;832
000286  f8551fa0          LDR      r1,[r5,#0xa0]!        ;832  ; Run_Control
00028a  eb010080          ADD      r0,r1,r0,LSL #2       ;832
00028e  6028              STR      r0,[r5,#0]            ;832  ; Run_Control
000290  e7ec              B        |L2.620|
                  |L2.658|
000292  4823              LDR      r0,|L2.800|
000294  9900              LDR      r1,[sp,#0]            ;842
000296  f7fffffe          BL       strcat
00029a  4921              LDR      r1,|L2.800|
00029c  4620              MOV      r0,r4                 ;843
00029e  f7fffffe          BL       TEXT_SetText
0002a2  7830              LDRB     r0,[r6,#0]            ;844  ; dot_flag
0002a4  b178              CBZ      r0,|L2.710|
0002a6  7830              LDRB     r0,[r6,#0]            ;847  ; dot_flag
0002a8  2801              CMP      r0,#1                 ;847
0002aa  d00f              BEQ      |L2.716|
0002ac  9800              LDR      r0,[sp,#0]            ;850
0002ae  f7fffffe          BL       atoi
0002b2  f8551fa0          LDR      r1,[r5,#0xa0]!        ;850  ; Run_Control
0002b6  eb000080          ADD      r0,r0,r0,LSL #2       ;850
0002ba  eb010040          ADD      r0,r1,r0,LSL #1       ;850
0002be  6028              STR      r0,[r5,#0]            ;850  ; Run_Control
                  |L2.704|
0002c0  2006              MOVS     r0,#6                 ;853
0002c2  7038              STRB     r0,[r7,#0]            ;853
0002c4  e6df              B        |L2.134|
                  |L2.710|
0002c6  f8c5b0a0          STR      r11,[r5,#0xa0]        ;846  ; Run_Control
0002ca  e7f9              B        |L2.704|
                  |L2.716|
0002cc  9800              LDR      r0,[sp,#0]            ;848
0002ce  f7fffffe          BL       atoi
0002d2  f8551fa0          LDR      r1,[r5,#0xa0]!        ;848  ; Run_Control
0002d6  4408              ADD      r0,r0,r1              ;848
0002d8  6028              STR      r0,[r5,#0]            ;848  ; Run_Control
0002da  e7f1              B        |L2.704|
                  |L2.732|
0002dc  4810              LDR      r0,|L2.800|
0002de  9900              LDR      r1,[sp,#0]            ;858
0002e0  f7fffffe          BL       strcat
0002e4  490e              LDR      r1,|L2.800|
0002e6  4620              MOV      r0,r4                 ;859
0002e8  f7fffffe          BL       TEXT_SetText
0002ec  7830              LDRB     r0,[r6,#0]            ;860  ; dot_flag
0002ee  b118              CBZ      r0,|L2.760|
0002f0  7830              LDRB     r0,[r6,#0]            ;863  ; dot_flag
0002f2  2802              CMP      r0,#2                 ;863
0002f4  d004              BEQ      |L2.768|
0002f6  e00a              B        |L2.782|
                  |L2.760|
0002f8  2000              MOVS     r0,#0                 ;862
0002fa  f8c500a0          STR      r0,[r5,#0xa0]         ;862  ; Run_Control
0002fe  e006              B        |L2.782|
                  |L2.768|
000300  9800              LDR      r0,[sp,#0]            ;864
000302  f7fffffe          BL       atoi
000306  f8551fa0          LDR      r1,[r5,#0xa0]!        ;864  ; Run_Control
00030a  4408              ADD      r0,r0,r1              ;864
00030c  6028              STR      r0,[r5,#0]            ;864  ; Run_Control
                  |L2.782|
00030e  f887a000          STRB     r10,[r7,#0]           ;866
000312  e6b8              B        |L2.134|
;;;874    
                          ENDP

                  |L2.788|
                          DCD      set_sw
                  |L2.792|
                          DCD      ||.data||
                  |L2.796|
                          DCD      Run_Control
                  |L2.800|
                          DCD      set_limit
                  |L2.804|
                          DCD      bit
                  |L2.808|
                          DCD      dot_flag

                          AREA ||i.MENU_OP_DOWN||, CODE, READONLY, ALIGN=2

                  MENU_OP_DOWN PROC
;;;448    void MENU_OP_DOWN(void);
;;;449    void MENU_OP_DOWN(void)
000000  e92d5ff0          PUSH     {r4-r12,lr}
;;;450    {
;;;451        switch(set_sw)
000004  4e25              LDR      r6,|L3.156|
000006  7831              LDRB     r1,[r6,#0]  ; set_sw
;;;452        {
;;;453            case set_10:
;;;454            {
;;;455                WM_HWIN hItem;
;;;456                hItem = WM_GetDialogItem(hWinWind, ID_TEXT_33);
000008  4d25              LDR      r5,|L3.160|
;;;457                TEXT_SetBkColor(hItem,GUI_INVALID_COLOR);//选项背景色设为透明
;;;458                TEXT_SetTextColor(hItem, GUI_WHITE);
;;;459                
;;;460                hItem = WM_GetDialogItem(hWinWind, ID_TEXT_34);
;;;461                TEXT_SetBkColor(hItem,0x00BFFFFF);//选项背景色设为米色
00000a  f8df8098          LDR      r8,|L3.164|
00000e  f640073d          MOV      r7,#0x83d             ;456
000012  6868              LDR      r0,[r5,#4]            ;451
000014  f06f4970          MVN      r9,#0xf0000000        ;457
000018  f06f4a7f          MVN      r10,#0xff000000       ;458
00001c  f6400b3e          MOV      r11,#0x83e            ;460
000020  2909              CMP      r1,#9                 ;451
000022  d01e              BEQ      |L3.98|
000024  290a              CMP      r1,#0xa               ;451
000026  d11a              BNE      |L3.94|
;;;462                TEXT_SetTextColor(hItem, GUI_BLACK);
;;;463    
;;;464                set_sw = set_11;
;;;465                break;
;;;466            }
;;;467            case set_11:
;;;468            {
;;;469                WM_HWIN hItem;
;;;470    //            WM_InvalidateWindow(hWinWind);
;;;471                hItem = WM_GetDialogItem(hWinWind, ID_TEXT_34);
000028  4659              MOV      r1,r11
00002a  f7fffffe          BL       WM_GetDialogItem
00002e  4604              MOV      r4,r0
;;;472                TEXT_SetBkColor(hItem,GUI_INVALID_COLOR);//选项背景色设为透明
000030  4649              MOV      r1,r9
000032  4620              MOV      r0,r4
000034  f7fffffe          BL       TEXT_SetBkColor
;;;473                TEXT_SetTextColor(hItem, GUI_WHITE);
000038  4651              MOV      r1,r10
00003a  4620              MOV      r0,r4
00003c  f7fffffe          BL       TEXT_SetTextColor
;;;474                
;;;475                hItem = WM_GetDialogItem(hWinWind, ID_TEXT_33);
000040  4639              MOV      r1,r7
000042  6868              LDR      r0,[r5,#4]  ; hWinWind
000044  f7fffffe          BL       WM_GetDialogItem
000048  4604              MOV      r4,r0
;;;476                TEXT_SetBkColor(hItem,0x00BFFFFF);//选项背景色设为米色
00004a  4641              MOV      r1,r8
00004c  4620              MOV      r0,r4
00004e  f7fffffe          BL       TEXT_SetBkColor
;;;477                TEXT_SetTextColor(hItem, GUI_BLACK);
000052  2100              MOVS     r1,#0
000054  4620              MOV      r0,r4
000056  f7fffffe          BL       TEXT_SetTextColor
;;;478    
;;;479                set_sw = set_10;
00005a  2009              MOVS     r0,#9
00005c  7030              STRB     r0,[r6,#0]
                  |L3.94|
;;;480                break;
;;;481            }                     
;;;482            default: break;
;;;483        }
;;;484    }
00005e  e8bd9ff0          POP      {r4-r12,pc}
                  |L3.98|
000062  4639              MOV      r1,r7                 ;456
000064  f7fffffe          BL       WM_GetDialogItem
000068  4604              MOV      r4,r0                 ;456
00006a  4649              MOV      r1,r9                 ;457
00006c  4620              MOV      r0,r4                 ;457
00006e  f7fffffe          BL       TEXT_SetBkColor
000072  4651              MOV      r1,r10                ;458
000074  4620              MOV      r0,r4                 ;458
000076  f7fffffe          BL       TEXT_SetTextColor
00007a  4659              MOV      r1,r11                ;460
00007c  6868              LDR      r0,[r5,#4]            ;460  ; hWinWind
00007e  f7fffffe          BL       WM_GetDialogItem
000082  4604              MOV      r4,r0                 ;460
000084  4641              MOV      r1,r8                 ;461
000086  4620              MOV      r0,r4                 ;461
000088  f7fffffe          BL       TEXT_SetBkColor
00008c  2100              MOVS     r1,#0                 ;462
00008e  4620              MOV      r0,r4                 ;462
000090  f7fffffe          BL       TEXT_SetTextColor
000094  200a              MOVS     r0,#0xa               ;464
000096  7030              STRB     r0,[r6,#0]            ;464
000098  e7e1              B        |L3.94|
;;;485    
                          ENDP

00009a  0000              DCW      0x0000
                  |L3.156|
                          DCD      set_sw
                  |L3.160|
                          DCD      ||.data||
                  |L3.164|
                          DCD      0x00bfffff

                          AREA ||i.MENU_OP_UP||, CODE, READONLY, ALIGN=2

                  MENU_OP_UP PROC
;;;486    void MENU_OP_UP(void);
;;;487    void MENU_OP_UP(void)
000000  e92d5ff0          PUSH     {r4-r12,lr}
;;;488    {
;;;489        switch(set_sw)
000004  4e25              LDR      r6,|L4.156|
000006  7831              LDRB     r1,[r6,#0]  ; set_sw
;;;490        {
;;;491            case set_10:
;;;492                {
;;;493                    WM_HWIN hItem;
;;;494    //                WM_InvalidateWindow(hWinWind);
;;;495                    hItem = WM_GetDialogItem(hWinWind, ID_TEXT_33);
000008  4d25              LDR      r5,|L4.160|
;;;496                    TEXT_SetBkColor(hItem,GUI_INVALID_COLOR);//选项背景色设为透明
;;;497                    TEXT_SetTextColor(hItem, GUI_WHITE);
;;;498                   
;;;499                    hItem = WM_GetDialogItem(hWinWind, ID_TEXT_34);
;;;500                    TEXT_SetBkColor(hItem,0x00BFFFFF);//选项背景色设为米色
00000a  f8df8098          LDR      r8,|L4.164|
00000e  f640073d          MOV      r7,#0x83d             ;495
000012  6868              LDR      r0,[r5,#4]            ;489
000014  f06f4970          MVN      r9,#0xf0000000        ;496
000018  f06f4a7f          MVN      r10,#0xff000000       ;497
00001c  f6400b3e          MOV      r11,#0x83e            ;499
000020  2909              CMP      r1,#9                 ;489
000022  d01e              BEQ      |L4.98|
000024  290a              CMP      r1,#0xa               ;489
000026  d11a              BNE      |L4.94|
;;;501                    TEXT_SetTextColor(hItem, GUI_BLACK);
;;;502    
;;;503                    set_sw = set_11;
;;;504                    break;
;;;505                }
;;;506                case set_11:
;;;507                {
;;;508                     WM_HWIN hItem;
;;;509    //                 WM_InvalidateWindow(hWinWind);
;;;510                     hItem = WM_GetDialogItem(hWinWind, ID_TEXT_34);
000028  4659              MOV      r1,r11
00002a  f7fffffe          BL       WM_GetDialogItem
00002e  4604              MOV      r4,r0
;;;511                     TEXT_SetBkColor(hItem,GUI_INVALID_COLOR);//选项背景色设为透明
000030  4649              MOV      r1,r9
000032  4620              MOV      r0,r4
000034  f7fffffe          BL       TEXT_SetBkColor
;;;512                     TEXT_SetTextColor(hItem, GUI_WHITE);
000038  4651              MOV      r1,r10
00003a  4620              MOV      r0,r4
00003c  f7fffffe          BL       TEXT_SetTextColor
;;;513                   
;;;514                     hItem = WM_GetDialogItem(hWinWind, ID_TEXT_33);
000040  4639              MOV      r1,r7
000042  6868              LDR      r0,[r5,#4]  ; hWinWind
000044  f7fffffe          BL       WM_GetDialogItem
000048  4604              MOV      r4,r0
;;;515                     TEXT_SetBkColor(hItem,0x00BFFFFF);//选项背景色设为米色
00004a  4641              MOV      r1,r8
00004c  4620              MOV      r0,r4
00004e  f7fffffe          BL       TEXT_SetBkColor
;;;516                     TEXT_SetTextColor(hItem, GUI_BLACK);
000052  2100              MOVS     r1,#0
000054  4620              MOV      r0,r4
000056  f7fffffe          BL       TEXT_SetTextColor
;;;517    
;;;518                     set_sw = set_10;
00005a  2009              MOVS     r0,#9
00005c  7030              STRB     r0,[r6,#0]
                  |L4.94|
;;;519                     break;
;;;520                 }                     
;;;521                 default: break;
;;;522        }
;;;523    }
00005e  e8bd9ff0          POP      {r4-r12,pc}
                  |L4.98|
000062  4639              MOV      r1,r7                 ;495
000064  f7fffffe          BL       WM_GetDialogItem
000068  4604              MOV      r4,r0                 ;495
00006a  4649              MOV      r1,r9                 ;496
00006c  4620              MOV      r0,r4                 ;496
00006e  f7fffffe          BL       TEXT_SetBkColor
000072  4651              MOV      r1,r10                ;497
000074  4620              MOV      r0,r4                 ;497
000076  f7fffffe          BL       TEXT_SetTextColor
00007a  4659              MOV      r1,r11                ;499
00007c  6868              LDR      r0,[r5,#4]            ;499  ; hWinWind
00007e  f7fffffe          BL       WM_GetDialogItem
000082  4604              MOV      r4,r0                 ;499
000084  4641              MOV      r1,r8                 ;500
000086  4620              MOV      r0,r4                 ;500
000088  f7fffffe          BL       TEXT_SetBkColor
00008c  2100              MOVS     r1,#0                 ;501
00008e  4620              MOV      r0,r4                 ;501
000090  f7fffffe          BL       TEXT_SetTextColor
000094  200a              MOVS     r0,#0xa               ;503
000096  7030              STRB     r0,[r6,#0]            ;503
000098  e7e1              B        |L4.94|
;;;524    
                          ENDP

00009a  0000              DCW      0x0000
                  |L4.156|
                          DCD      set_sw
                  |L4.160|
                          DCD      ||.data||
                  |L4.164|
                          DCD      0x00bfffff

                          AREA ||i.MENU_SET||, CODE, READONLY, ALIGN=2

                          REQUIRE _printf_percent
                          REQUIRE _printf_widthprec
                          REQUIRE _printf_f
                          REQUIRE _printf_fp_dec
                  MENU_SET PROC
;;;526    void MENU_SET(void);
;;;527    void MENU_SET(void)
000000  e92d4ffe          PUSH     {r1-r11,lr}
;;;528    {
;;;529        vu8 i;
;;;530        char buf[5];    
;;;531    
;;;532        float dis_output_v;
;;;533        float dis_output_c; 
;;;534        
;;;535        if(SET_Voltage > /*3000*/ 6200)
000004  4c8c              LDR      r4,|L5.568|
000006  6861              LDR      r1,[r4,#4]  ; Run_Control
000008  f6410038          MOV      r0,#0x1838
00000c  4281              CMP      r1,r0
00000e  d900              BLS      |L5.18|
;;;536        {
;;;537          SET_Voltage = /*3000*/ 6200;
000010  6060              STR      r0,[r4,#4]  ; Run_Control
                  |L5.18|
;;;538        }
;;;539        if(SET_Current > 15000)
000012  68a1              LDR      r1,[r4,#8]  ; Run_Control
000014  f6432098          MOV      r0,#0x3a98
000018  4281              CMP      r1,r0
00001a  d900              BLS      |L5.30|
;;;540        {
;;;541          SET_Current = 15000;
00001c  60a0              STR      r0,[r4,#8]  ; Run_Control
                  |L5.30|
;;;542        }
;;;543        switch(set_sw){
00001e  4e87              LDR      r6,|L5.572|
000020  7831              LDRB     r1,[r6,#0]  ; set_sw
;;;544            case set_10:
;;;545            {
;;;546                WM_HWIN hItem;
;;;547    //            WM_InvalidateWindow(hWinWind);
;;;548                hItem = WM_GetDialogItem(hWinWind, ID_TEXT_33);
000022  4887              LDR      r0,|L5.576|
;;;549                TEXT_SetBkColor(hItem,GUI_INVALID_COLOR);//选项背景色设为透明
;;;550                TEXT_SetTextColor(hItem, GUI_WHITE);
;;;551                       
;;;552                hItem = WM_GetDialogItem(hWinWind, ID_TEXT_41);
;;;553                TEXT_SetBkColor(hItem,0x00BFFFFF);//选项背景色设为米色
;;;554                TEXT_SetTextColor(hItem, GUI_BLACK);
;;;555                for(i=0;i<5;i++)
;;;556                {
;;;557                    set_limit[i] = '\0';
000024  4f87              LDR      r7,|L5.580|
000026  2500              MOVS     r5,#0                 ;554
000028  6842              LDR      r2,[r0,#4]            ;543
00002a  2909              CMP      r1,#9                 ;543
00002c  d061              BEQ      |L5.242|
00002e  290a              CMP      r1,#0xa               ;543
000030  d07e              BEQ      |L5.304|
;;;558                }
;;;559    
;;;560                set_sw = set_18;
;;;561                break;                        
;;;562            }
;;;563            case set_18:
;;;564            {           
;;;565                WM_HWIN hItem;
;;;566    //            WM_InvalidateWindow(hWinWind);
;;;567                hItem = WM_GetDialogItem(hWinWind, ID_TEXT_41);
;;;568                TEXT_SetBkColor(hItem,GUI_INVALID_COLOR);//选项背景色设为透明
;;;569                TEXT_SetTextColor(hItem, GUI_WHITE);
;;;570                SET_Voltage = pow_v;
;;;571                if(SET_Voltage/100 * SET_Current/1000 > 200)
000032  f8dfb214          LDR      r11,|L5.584|
;;;572                {
;;;573                    SET_Voltage = 0;
;;;574                }
;;;575                dis_output_v = (float)SET_Voltage/100;
;;;576                
;;;577                sprintf(buf,"%.2f",dis_output_v);
;;;578                TEXT_SetText(hItem,buf);
;;;579                
;;;580                                            
;;;581                hItem = WM_GetDialogItem(hWinWind, ID_TEXT_33);
;;;582                TEXT_SetBkColor(hItem,0x00BFFFFF);//选项背景色设为米色
;;;583                TEXT_SetTextColor(hItem, GUI_BLACK);
;;;584                                
;;;585                Write_Limits();
;;;586                set_sw = set_10;
;;;587                bit = 1;
000036  2701              MOVS     r7,#1
000038  f8df8210          LDR      r8,|L5.588|
;;;588                dot_flag = 0;
00003c  f8df9210          LDR      r9,|L5.592|
000040  f04f0a64          MOV      r10,#0x64             ;571
000044  2911              CMP      r1,#0x11              ;543
000046  d074              BEQ      |L5.306|
000048  2912              CMP      r1,#0x12              ;543
00004a  d150              BNE      |L5.238|
;;;589                break; 
;;;590             }
;;;591             case set_11:
;;;592             {
;;;593                WM_HWIN hItem;
;;;594    //            WM_InvalidateWindow(hWinWind);
;;;595                hItem = WM_GetDialogItem(hWinWind, ID_TEXT_34);
;;;596                TEXT_SetBkColor(hItem,GUI_INVALID_COLOR);//选项背景色设为透明
;;;597                TEXT_SetTextColor(hItem, GUI_WHITE);
;;;598                                    
;;;599                hItem = WM_GetDialogItem(hWinWind, ID_TEXT_42);
;;;600                TEXT_SetBkColor(hItem,0x00BFFFFF);//选项背景色设为米色
;;;601                TEXT_SetTextColor(hItem, GUI_BLACK);
;;;602                for(i=0;i<5;i++)
;;;603                {
;;;604                    set_limit[i] = '\0';
;;;605                }
;;;606    
;;;607                set_sw = set_19;
;;;608                break;                        
;;;609             }
;;;610             case set_19:
;;;611             {           
;;;612                WM_HWIN hItem;
;;;613    //            WM_InvalidateWindow(hWinWind);
;;;614                hItem = WM_GetDialogItem(hWinWind, ID_TEXT_42);
00004c  f6400167          MOV      r1,#0x867
000050  4610              MOV      r0,r2
000052  f7fffffe          BL       WM_GetDialogItem
000056  9000              STR      r0,[sp,#0]
;;;615                TEXT_SetBkColor(hItem,GUI_INVALID_COLOR);//选项背景色设为透明
000058  f06f4170          MVN      r1,#0xf0000000
00005c  9800              LDR      r0,[sp,#0]
00005e  f7fffffe          BL       TEXT_SetBkColor
;;;616                TEXT_SetTextColor(hItem, GUI_WHITE);
000062  f06f417f          MVN      r1,#0xff000000
000066  9800              LDR      r0,[sp,#0]
000068  f7fffffe          BL       TEXT_SetTextColor
;;;617                  SET_Current = pow_c;
00006c  f8d400a0          LDR      r0,[r4,#0xa0]  ; Run_Control
000070  60a0              STR      r0,[r4,#8]  ; Run_Control
;;;618                if(SET_Current > 5000)
000072  68a1              LDR      r1,[r4,#8]  ; Run_Control
000074  f2413088          MOV      r0,#0x1388
000078  4281              CMP      r1,r0
00007a  d900              BLS      |L5.126|
;;;619                {
;;;620                    SET_Current = 5000;               
00007c  60a0              STR      r0,[r4,#8]  ; Run_Control
                  |L5.126|
;;;621                }
;;;622                if(SET_Voltage/100 * SET_Current/1000 > 200)
00007e  6860              LDR      r0,[r4,#4]  ; Run_Control
000080  68a1              LDR      r1,[r4,#8]  ; Run_Control
000082  fbb0f0fa          UDIV     r0,r0,r10
000086  4348              MULS     r0,r1,r0
000088  4558              CMP      r0,r11
00008a  d900              BLS      |L5.142|
;;;623                {
;;;624                    SET_Current = 0;
00008c  60a5              STR      r5,[r4,#8]  ; Run_Control
                  |L5.142|
;;;625                }
;;;626                dis_output_c = (float)SET_Current/1000;
00008e  68a0              LDR      r0,[r4,#8]  ; Run_Control
000090  ee000a10          VMOV     s0,r0
000094  eef80a40          VCVT.F32.U32 s1,s0
000098  ed9f1a6e          VLDR     s2,|L5.596|
00009c  ee800a81          VDIV.F32 s0,s1,s2
;;;627                sprintf(buf,"%.3f",dis_output_c);
0000a0  ee100a10          VMOV     r0,s0
0000a4  f7fffffe          BL       __aeabi_f2d
0000a8  ec410b10          VMOV     d0,r0,r1
0000ac  a16a              ADR      r1,|L5.600|
0000ae  ec532b10          VMOV     r2,r3,d0
0000b2  a801              ADD      r0,sp,#4
0000b4  f7fffffe          BL       __2sprintf
;;;628                TEXT_SetText(hItem,buf);            
0000b8  a901              ADD      r1,sp,#4
0000ba  9800              LDR      r0,[sp,#0]
0000bc  f7fffffe          BL       TEXT_SetText
;;;629                       
;;;630                hItem = WM_GetDialogItem(hWinWind, ID_TEXT_34);
0000c0  485f              LDR      r0,|L5.576|
0000c2  f640013e          MOV      r1,#0x83e
0000c6  6840              LDR      r0,[r0,#4]  ; hWinWind
0000c8  f7fffffe          BL       WM_GetDialogItem
0000cc  4604              MOV      r4,r0
;;;631                TEXT_SetBkColor(hItem,0x00BFFFFF);//选项背景色设为米色
0000ce  4964              LDR      r1,|L5.608|
0000d0  4620              MOV      r0,r4
0000d2  f7fffffe          BL       TEXT_SetBkColor
;;;632                TEXT_SetTextColor(hItem, GUI_BLACK);
0000d6  2100              MOVS     r1,#0
0000d8  4620              MOV      r0,r4
0000da  f7fffffe          BL       TEXT_SetTextColor
;;;633                                                     
;;;634                Write_Limits();
0000de  f7fffffe          BL       Write_Limits
;;;635                set_sw = set_11;
0000e2  200a              MOVS     r0,#0xa
0000e4  7030              STRB     r0,[r6,#0]
;;;636                bit = 1;
0000e6  f8887000          STRB     r7,[r8,#0]
;;;637                dot_flag = 0;
0000ea  f8895000          STRB     r5,[r9,#0]
                  |L5.238|
;;;638                break; 
;;;639             }
;;;640             default:break;
;;;641         }
;;;642    }
0000ee  e8bd8ffe          POP      {r1-r11,pc}
                  |L5.242|
0000f2  4680              MOV      r8,r0                 ;548
0000f4  f640013d          MOV      r1,#0x83d             ;548
0000f8  4610              MOV      r0,r2                 ;548
0000fa  f7fffffe          BL       WM_GetDialogItem
0000fe  4604              MOV      r4,r0                 ;548
000100  f06f4170          MVN      r1,#0xf0000000        ;549
000104  4620              MOV      r0,r4                 ;549
000106  f7fffffe          BL       TEXT_SetBkColor
00010a  f06f417f          MVN      r1,#0xff000000        ;550
00010e  4620              MOV      r0,r4                 ;550
000110  f7fffffe          BL       TEXT_SetTextColor
000114  f6400166          MOV      r1,#0x866             ;552
000118  f8d80004          LDR      r0,[r8,#4]            ;552  ; hWinWind
00011c  f7fffffe          BL       WM_GetDialogItem
000120  4604              MOV      r4,r0                 ;552
000122  494f              LDR      r1,|L5.608|
000124  4620              MOV      r0,r4                 ;553
000126  f7fffffe          BL       TEXT_SetBkColor
00012a  2100              MOVS     r1,#0                 ;554
00012c  4620              MOV      r0,r4                 ;554
00012e  e001              B        |L5.308|
                  |L5.304|
000130  e058              B        |L5.484|
                  |L5.306|
000132  e00b              B        |L5.332|
                  |L5.308|
000134  f7fffffe          BL       TEXT_SetTextColor
000138  2000              MOVS     r0,#0                 ;555
00013a  e002              B        |L5.322|
                  |L5.316|
00013c  543d              STRB     r5,[r7,r0]            ;557
00013e  1c40              ADDS     r0,r0,#1              ;555
000140  b2c0              UXTB     r0,r0                 ;555
                  |L5.322|
000142  2805              CMP      r0,#5                 ;555
000144  d3fa              BCC      |L5.316|
000146  2011              MOVS     r0,#0x11              ;560
000148  7030              STRB     r0,[r6,#0]            ;560
00014a  e7d0              B        |L5.238|
                  |L5.332|
00014c  f6400166          MOV      r1,#0x866             ;567
000150  4610              MOV      r0,r2                 ;567
000152  f7fffffe          BL       WM_GetDialogItem
000156  9000              STR      r0,[sp,#0]            ;567
000158  f06f4170          MVN      r1,#0xf0000000        ;568
00015c  9800              LDR      r0,[sp,#0]            ;568
00015e  f7fffffe          BL       TEXT_SetBkColor
000162  f06f417f          MVN      r1,#0xff000000        ;569
000166  9800              LDR      r0,[sp,#0]            ;569
000168  f7fffffe          BL       TEXT_SetTextColor
00016c  f8d40098          LDR      r0,[r4,#0x98]         ;570  ; Run_Control
000170  6060              STR      r0,[r4,#4]            ;570  ; Run_Control
000172  6860              LDR      r0,[r4,#4]            ;571  ; Run_Control
000174  68a1              LDR      r1,[r4,#8]            ;571  ; Run_Control
000176  fbb0f0fa          UDIV     r0,r0,r10             ;571
00017a  4348              MULS     r0,r1,r0              ;571
00017c  4558              CMP      r0,r11                ;571
00017e  d900              BLS      |L5.386|
000180  6065              STR      r5,[r4,#4]            ;573  ; Run_Control
                  |L5.386|
000182  6860              LDR      r0,[r4,#4]            ;575  ; Run_Control
000184  ed9f1a37          VLDR     s2,|L5.612|
000188  ee000a10          VMOV     s0,r0                 ;575
00018c  eef80a40          VCVT.F32.U32 s1,s0                 ;575
000190  ee800a81          VDIV.F32 s0,s1,s2              ;575
000194  ee100a10          VMOV     r0,s0                 ;577
000198  f7fffffe          BL       __aeabi_f2d
00019c  ec410b10          VMOV     d0,r0,r1              ;577
0001a0  a131              ADR      r1,|L5.616|
0001a2  ec532b10          VMOV     r2,r3,d0              ;577
0001a6  a801              ADD      r0,sp,#4              ;577
0001a8  f7fffffe          BL       __2sprintf
0001ac  a901              ADD      r1,sp,#4              ;578
0001ae  9800              LDR      r0,[sp,#0]            ;578
0001b0  f7fffffe          BL       TEXT_SetText
0001b4  4822              LDR      r0,|L5.576|
0001b6  f640013d          MOV      r1,#0x83d             ;581
0001ba  6840              LDR      r0,[r0,#4]            ;581  ; hWinWind
0001bc  f7fffffe          BL       WM_GetDialogItem
0001c0  4604              MOV      r4,r0                 ;581
0001c2  4927              LDR      r1,|L5.608|
0001c4  4620              MOV      r0,r4                 ;582
0001c6  f7fffffe          BL       TEXT_SetBkColor
0001ca  2100              MOVS     r1,#0                 ;583
0001cc  4620              MOV      r0,r4                 ;583
0001ce  f7fffffe          BL       TEXT_SetTextColor
0001d2  f7fffffe          BL       Write_Limits
0001d6  2009              MOVS     r0,#9                 ;586
0001d8  7030              STRB     r0,[r6,#0]            ;586
0001da  f8887000          STRB     r7,[r8,#0]            ;587
0001de  f8895000          STRB     r5,[r9,#0]            ;588
0001e2  e784              B        |L5.238|
                  |L5.484|
0001e4  4680              MOV      r8,r0                 ;595
0001e6  f640013e          MOV      r1,#0x83e             ;595
0001ea  4610              MOV      r0,r2                 ;595
0001ec  f7fffffe          BL       WM_GetDialogItem
0001f0  4604              MOV      r4,r0                 ;595
0001f2  f06f4170          MVN      r1,#0xf0000000        ;596
0001f6  4620              MOV      r0,r4                 ;596
0001f8  f7fffffe          BL       TEXT_SetBkColor
0001fc  f06f417f          MVN      r1,#0xff000000        ;597
000200  4620              MOV      r0,r4                 ;597
000202  f7fffffe          BL       TEXT_SetTextColor
000206  f6400167          MOV      r1,#0x867             ;599
00020a  f8d80004          LDR      r0,[r8,#4]            ;599  ; hWinWind
00020e  f7fffffe          BL       WM_GetDialogItem
000212  4604              MOV      r4,r0                 ;599
000214  4912              LDR      r1,|L5.608|
000216  4620              MOV      r0,r4                 ;600
000218  f7fffffe          BL       TEXT_SetBkColor
00021c  2100              MOVS     r1,#0                 ;601
00021e  4620              MOV      r0,r4                 ;601
000220  f7fffffe          BL       TEXT_SetTextColor
000224  2000              MOVS     r0,#0                 ;602
000226  e002              B        |L5.558|
                  |L5.552|
000228  543d              STRB     r5,[r7,r0]            ;604
00022a  1c40              ADDS     r0,r0,#1              ;602
00022c  b2c0              UXTB     r0,r0                 ;602
                  |L5.558|
00022e  2805              CMP      r0,#5                 ;602
000230  d3fa              BCC      |L5.552|
000232  2012              MOVS     r0,#0x12              ;607
000234  7030              STRB     r0,[r6,#0]            ;607
000236  e75a              B        |L5.238|
;;;643    
                          ENDP

                  |L5.568|
                          DCD      Run_Control
                  |L5.572|
                          DCD      set_sw
                  |L5.576|
                          DCD      ||.data||
                  |L5.580|
                          DCD      set_limit
                  |L5.584|
                          DCD      0x00031127
                  |L5.588|
                          DCD      bit
                  |L5.592|
                          DCD      dot_flag
                  |L5.596|
000254  447a0000          DCFS     0x447a0000 ; 1000
                  |L5.600|
000258  252e3366          DCB      "%.3f",0
00025c  00      
00025d  00                DCB      0
00025e  00                DCB      0
00025f  00                DCB      0
                  |L5.608|
                          DCD      0x00bfffff
                  |L5.612|
000264  42c80000          DCFS     0x42c80000 ; 100
                  |L5.616|
000268  252e3266          DCB      "%.2f",0
00026c  00      
00026d  00                DCB      0
00026e  00                DCB      0
00026f  00                DCB      0

                          AREA ||i.ResetPow||, CODE, READONLY, ALIGN=2

                  ResetPow PROC
;;;440    
;;;441    WM_HWIN ResetPow(void) {
000000  b51c              PUSH     {r2-r4,lr}
;;;442        hWinWind = GUI_CreateDialogBox(_aDialogCreate1, GUI_COUNTOF(_aDialogCreate1), _cbDialog, WM_HBKWIN, 0, 0);
000002  f7fffffe          BL       WM_GetDesktopWindow
000006  4603              MOV      r3,r0
000008  2000              MOVS     r0,#0
00000a  9000              STR      r0,[sp,#0]
00000c  9001              STR      r0,[sp,#4]
00000e  4a04              LDR      r2,|L6.32|
000010  2113              MOVS     r1,#0x13
000012  4804              LDR      r0,|L6.36|
000014  f7fffffe          BL       GUI_CreateDialogBox
000018  4903              LDR      r1,|L6.40|
00001a  6048              STR      r0,[r1,#4]  ; hWinWind
;;;443    //    WM_InvalidateWindow(hWinWind);
;;;444        return hWinWind;
;;;445    }
00001c  bd1c              POP      {r2-r4,pc}
;;;446    
                          ENDP

00001e  0000              DCW      0x0000
                  |L6.32|
                          DCD      _cbDialog
                  |L6.36|
                          DCD      ||.constdata||
                  |L6.40|
                          DCD      ||.data||

                          AREA ||i._cbDialog||, CODE, READONLY, ALIGN=2

                          REQUIRE _printf_percent
                          REQUIRE _printf_widthprec
                          REQUIRE _printf_f
                          REQUIRE _printf_fp_dec
                          REQUIRE _printf_pre_padding
                          REQUIRE _printf_flags
                          REQUIRE _printf_d
                          REQUIRE _printf_int_dec
                  _cbDialog PROC
;;;75     
;;;76     static void _cbDialog(WM_MESSAGE * pMsg) {
000000  e92d4ff0          PUSH     {r4-r11,lr}
000004  ed2d8b02          VPUSH    {d8}
000008  b083              SUB      sp,sp,#0xc
00000a  4604              MOV      r4,r0
;;;77       WM_HWIN hItem;
;;;78       int     NCode;
;;;79       int     Id;
;;;80       static vu8 status_flash;
;;;81       char buf[5];    
;;;82     
;;;83       float dis_output_v = (float)SET_Voltage/100;
00000c  48fe              LDR      r0,|L7.1032|
00000e  6841              LDR      r1,[r0,#4]  ; Run_Control
000010  ee001a10          VMOV     s0,r1
000014  eeb80a40          VCVT.F32.U32 s0,s0
000018  eddf0afc          VLDR     s1,|L7.1036|
00001c  eec08a20          VDIV.F32 s17,s0,s1
;;;84       float dis_output_c = (float)SET_Current/1000;  
000020  6880              LDR      r0,[r0,#8]  ; Run_Control
000022  ee000a10          VMOV     s0,r0
000026  eeb80a40          VCVT.F32.U32 s0,s0
00002a  eddf0af9          VLDR     s1,|L7.1040|
00002e  ee808a20          VDIV.F32 s16,s0,s1
;;;85     
;;;86       
;;;87       // USER START (Optionally insert additional variables)
;;;88       // USER END
;;;89     
;;;90       switch (pMsg->MsgId) {
000032  6820              LDR      r0,[r4,#0]
;;;91     
;;;92     	case WM_PAINT://无效化重绘
;;;93     		GUI_SetColor(GUI_WHITE);//设置画笔颜色
;;;94             GUI_FillRect(0,25,480,26);//画一条实线
;;;95             GUI_SetColor(GUI_ORANGE);
;;;96             GUI_SetFont(&GUI_Fontsymbol);
;;;97             GUI_UC_SetEncodeUTF8();
;;;98             GUI_SetTextMode(GUI_TM_TRANS);//设置文本模式为底色透明
;;;99             GUI_DispStringAt("Jinko", 5, 1);//SET
;;;100            GUI_SetColor(GUI_WHITE);
;;;101            GUI_SetFont(&GUI_FontHZ20S);
;;;102            GUI_UC_SetEncodeUTF8();
;;;103            GUI_SetTextMode(GUI_TM_TRANS);//设置文本模式为底色透明       
;;;104            GUI_DispStringAt("测量显示", 130, 3);//SET
;;;105            GUI_SetColor(GUI_WHITE);//设置前景色为白色
;;;106    //      GUI_SetFont(&GUI_FontD24x32);//
;;;107    // 		GUI_GotoXY(95,72);//设置显示坐标
;;;108    // 		GUI_DispFloatFix(DISS_POW_Voltage,5,2);//显示电压值
;;;109    // 		GUI_GotoXY(95,140);//设置显示坐标
;;;110    // 		GUI_DispFloatFix(DISS_POW_Current,5,2);//显示电流值
;;;111            GUI_SetFont(&GUI_Font24_1);
;;;112            GUI_DispStringAt("V",435,75);
;;;113            GUI_DispStringAt("A",435,150);
;;;114            
;;;115            GUI_SetFont(&GUI_FontEN40);
;;;116            GUI_SetColor(GUI_LIGHTGRAY);
000034  f8df93dc          LDR      r9,|L7.1044|
000038  f06f487f          MVN      r8,#0xff000000        ;93
;;;117            GUI_DispStringAt("C:", 28, 190);
;;;118            GUI_SetColor(GUI_LIGHTGRAY);
;;;119            GUI_DispStringAt("m", 217, 196);
;;;120            GUI_DispStringAt("AH", 238, 187);
;;;121            
;;;122            GUI_SetColor(GUI_GREEN);
00003c  f44f477f          MOV      r7,#0xff00
000040  280f              CMP      r0,#0xf               ;90
000042  d014              BEQ      |L7.110|
;;;123            GUI_SetFont(&GUI_Fontunit);
;;;124            GUI_DispStringAt("°",342, 2);
;;;125            GUI_SetFont(&GUI_Font24_1);
;;;126            GUI_DispStringAt("C",350, 2);
;;;127    		break;
;;;128        
;;;129    	case WM_TIMER://定时模块消息
;;;130    	if(WM_GetTimerId(pMsg->Data.v) == ID_TimerTime2)
;;;131    	{
;;;132            if(clear_flag2 == 1)
;;;133            {
;;;134                if(DISS_POW_Voltage <= clear_pv)
;;;135                {
;;;136                    hItem = WM_GetDialogItem(pMsg->hWin, ID_TEXT_86);
;;;137                    sprintf(buf,"%.2f",0);       
;;;138                    TEXT_SetText(hItem,buf);
;;;139                }else{
;;;140                    hItem = WM_GetDialogItem(pMsg->hWin, ID_TEXT_86);
;;;141                    sprintf(buf,"%.2f",DISS_POW_Voltage);       
;;;142                    TEXT_SetText(hItem,buf);
;;;143                }
;;;144            }else{
;;;145                hItem = WM_GetDialogItem(pMsg->hWin, ID_TEXT_86);
;;;146                sprintf(buf,"%.2f",DISS_POW_Voltage);       
;;;147                TEXT_SetText(hItem,buf);
;;;148            }
;;;149            
;;;150            
;;;151            hItem = WM_GetDialogItem(pMsg->hWin, ID_TEXT_87);
;;;152            sprintf(buf,"%.3f",DISS_POW_Current);        
;;;153    		TEXT_SetText(hItem,buf);
;;;154            
;;;155    //        test_pow();
;;;156            if(pow_sw == pow_on)
;;;157            {
;;;158                battery_c = (int)bc_raw;
;;;159                hItem = WM_GetDialogItem(pMsg->hWin, ID_TEXT_115);
;;;160                sprintf(buf,"%05d",battery_c);      
;;;161                TEXT_SetText(hItem,buf);
;;;162                if(status_flash == 0){
;;;163                    hItem = WM_GetDialogItem(pMsg->hWin, ID_TEXT_88);
;;;164                    TEXT_SetTextColor(hItem, GUI_RED);//设置字体颜色
;;;165                    TEXT_SetFont(hItem,&GUI_FontHZ16);//设定文本字体
;;;166                    GUI_UC_SetEncodeUTF8();        
;;;167                    TEXT_SetText(hItem,"充电中");
;;;168                    status_flash = 1;
;;;169                }else{
;;;170                    hItem = WM_GetDialogItem(pMsg->hWin, ID_TEXT_88);
;;;171                    TEXT_SetText(hItem,"");
;;;172                    status_flash = 0;
;;;173               }
;;;174                
;;;175            }else{
;;;176                hItem = WM_GetDialogItem(pMsg->hWin, ID_TEXT_88);
;;;177                TEXT_SetText(hItem,"");
;;;178            }
;;;179            hItem = WM_GetDialogItem(pMsg->hWin, ID_TEXT_125);       
;;;180            sprintf(buf,"%.1f",temp);
000044  4ef4              LDR      r6,|L7.1048|
000046  f6400a93          MOV      r10,#0x893            ;136
00004a  f6400b94          MOV      r11,#0x894            ;151
00004e  281d              CMP      r0,#0x1d              ;90
000050  d078              BEQ      |L7.324|
000052  2826              CMP      r0,#0x26              ;90
000054  d077              BEQ      |L7.326|
000056  f5a07080          SUB      r0,r0,#0x100          ;90
00005a  3813              SUBS     r0,r0,#0x13           ;90
00005c  d075              BEQ      |L7.330|
;;;181            TEXT_SetText(hItem,buf);
;;;182    
;;;183    		WM_RestartTimer(pMsg->Data.v, 50);//复位定时器数值越大刷新时间越短
;;;184    	}
;;;185    	break;
;;;186      case WM_INIT_DIALOG://重绘外观
;;;187        //
;;;188        // Initialization of 'Window'
;;;189        //
;;;190            hItem = pMsg->hWin;
;;;191            WINDOW_SetBkColor(hItem, GUI_BLACK);
;;;192            WM_CreateTimer(hItem,ID_TimerTime2,1000,0);//创建本窗口定时器
;;;193        //
;;;194        // Initialization of 'Button'
;;;195        //
;;;196    //         hItem = WM_GetDialogItem(pMsg->hWin, ID_BUTTON_0);
;;;197    // 		BUTTON_SetTextColor(hItem,0,GUI_BLACK);//设置字体颜色为黑色
;;;198    // 		BUTTON_SetFont      (hItem,    &GUI_FontHZ16);//设定按钮文本字体
;;;199    // 		GUI_UC_SetEncodeUTF8();
;;;200    // 		BUTTON_SetText(hItem,"充放电");
;;;201        //
;;;202        // Initialization of 'Button'
;;;203        //
;;;204            hItem = WM_GetDialogItem(pMsg->hWin, ID_BUTTON_1);
;;;205    //		BUTTON_SetTextColor(hItem,0,GUI_BLACK);//设置字体颜色为黑色
;;;206    		BUTTON_SetFont      (hItem,    &GUI_FontHZ16);//设定按钮文本字体
;;;207    		GUI_UC_SetEncodeUTF8();
;;;208            BUTTON_SetText(hItem, "内阻测试");
;;;209        //
;;;210        // Initialization of 'Button'
;;;211        //
;;;212            hItem = WM_GetDialogItem(pMsg->hWin, ID_BUTTON_2);
;;;213    //        BUTTON_SetTextColor(hItem,0,GUI_BLACK);//设置字体颜色为黑色
;;;214    		BUTTON_SetFont      (hItem,    &GUI_FontHZ16);//设定按钮文本字体
;;;215    		GUI_UC_SetEncodeUTF8();
;;;216            BUTTON_SetText(hItem, "程控负载");
;;;217        //
;;;218        // Initialization of 'Button'
;;;219        //
;;;220            hItem = WM_GetDialogItem(pMsg->hWin, ID_BUTTON_3);
;;;221            BUTTON_SetPressed(hItem,1);
;;;222    //        BUTTON_SetTextColor(hItem,0,GUI_BLACK);//设置字体颜色为黑色
;;;223    		BUTTON_SetFont      (hItem,    &GUI_FontHZ16);//设定按钮文本字体
;;;224    		GUI_UC_SetEncodeUTF8();
;;;225            BUTTON_SetText(hItem, "程控电源");
;;;226        //
;;;227        // Initialization of 'Button'
;;;228        //
;;;229            hItem = WM_GetDialogItem(pMsg->hWin, ID_BUTTON_4);
;;;230    //        BUTTON_SetTextColor(hItem,0,GUI_BLACK);//设置字体颜色为黑色
;;;231    		BUTTON_SetFont      (hItem,    &GUI_FontHZ16);//设定按钮文本字体
;;;232    		GUI_UC_SetEncodeUTF8();
;;;233            BUTTON_SetText(hItem, "充放电");
;;;234        //
;;;235        // Initialization of 'Button'
;;;236        //
;;;237            hItem = WM_GetDialogItem(pMsg->hWin, ID_BUTTON_5);
;;;238    //        BUTTON_SetTextColor(hItem,0,GUI_BLACK);//设置字体颜色为黑色
;;;239    		BUTTON_SetFont      (hItem,    &GUI_FontHZ16);//设定按钮文本字体
;;;240    		GUI_UC_SetEncodeUTF8();
;;;241            BUTTON_SetText(hItem, "曲线");
;;;242    		
;;;243    		
;;;244    		hItem = WM_GetDialogItem(pMsg->hWin, ID_TEXT_9);
;;;245    		TEXT_SetTextColor(hItem, GUI_LIGHTGRAY);//设置字体颜色
;;;246            TEXT_SetFont(hItem,&GUI_FontEN40);//设定文本字体
;;;247    		GUI_UC_SetEncodeUTF8();
;;;248    		TEXT_SetText(hItem,"V:");
;;;249    		
;;;250    		hItem = WM_GetDialogItem(pMsg->hWin, ID_TEXT_10);
;;;251    		TEXT_SetTextColor(hItem, GUI_LIGHTGRAY);//设置字体颜色
;;;252            TEXT_SetFont(hItem,&GUI_FontEN40);//设定文本字体
;;;253    		GUI_UC_SetEncodeUTF8();
;;;254    		TEXT_SetText(hItem,"I:");
;;;255            
;;;256            hItem = WM_GetDialogItem(pMsg->hWin, ID_TEXT_15);
;;;257    		TEXT_SetTextColor(hItem, GUI_LIGHTGRAY);//设置字体颜色
;;;258            TEXT_SetFont(hItem,&GUI_FontEN40);//设定文本字体
;;;259    		GUI_UC_SetEncodeUTF8();
;;;260    		TEXT_SetText(hItem,"V");
;;;261    		
;;;262    		hItem = WM_GetDialogItem(pMsg->hWin, ID_TEXT_16);
;;;263    		TEXT_SetTextColor(hItem, GUI_LIGHTGRAY);//设置字体颜色
;;;264            TEXT_SetFont(hItem,&GUI_FontEN40);//设定文本字体
;;;265    		GUI_UC_SetEncodeUTF8();
;;;266    		TEXT_SetText(hItem,"A");
;;;267            
;;;268            hItem = WM_GetDialogItem(pMsg->hWin, ID_TEXT_33);
;;;269    		TEXT_SetTextColor(hItem, GUI_BLACK);//设置字体颜色
;;;270            TEXT_SetBkColor(hItem,0x00BFFFFF);
;;;271            TEXT_SetFont(hItem,&GUI_Fontset_font);//设定文本字体
;;;272    		GUI_UC_SetEncodeUTF8();
;;;273    		TEXT_SetText(hItem,"输出电压");        
;;;274            
;;;275            hItem = WM_GetDialogItem(pMsg->hWin, ID_TEXT_34);
;;;276    		TEXT_SetTextColor(hItem, GUI_WHITE);//设置字体颜色
;;;277            TEXT_SetFont(hItem,&GUI_Fontset_font);//设定文本字体
;;;278    		GUI_UC_SetEncodeUTF8();
;;;279    		TEXT_SetText(hItem,"限制电流");
;;;280            
;;;281            hItem = WM_GetDialogItem(pMsg->hWin, ID_TEXT_41);
;;;282            sprintf(buf,"%.2f",dis_output_v);
;;;283    		TEXT_SetTextColor(hItem, GUI_WHITE);//设置字体颜色
;;;284            TEXT_SetFont(hItem,&GUI_Font24_1);//设定文本字体
;;;285    		GUI_UC_SetEncodeUTF8();        
;;;286    		TEXT_SetText(hItem,buf);
;;;287            
;;;288            hItem = WM_GetDialogItem(pMsg->hWin, ID_TEXT_42);
;;;289            sprintf(buf,"%.3f",dis_output_c);
;;;290    		TEXT_SetTextColor(hItem, GUI_WHITE);//设置字体颜色
;;;291            TEXT_SetFont(hItem,&GUI_Font24_1);//设定文本字体
;;;292    		GUI_UC_SetEncodeUTF8();        
;;;293    		TEXT_SetText(hItem,buf);
;;;294            
;;;295            hItem = WM_GetDialogItem(pMsg->hWin, ID_TEXT_86);
;;;296            sprintf(buf,"%.2f",0);
;;;297    		TEXT_SetTextColor(hItem, GUI_GREEN);//设置字体颜色
;;;298            TEXT_SetFont(hItem,&GUI_FontD24x32);//设定文本字体
;;;299    		GUI_UC_SetEncodeUTF8();        
;;;300    		TEXT_SetText(hItem,buf);
;;;301            
;;;302            hItem = WM_GetDialogItem(pMsg->hWin, ID_TEXT_87);
;;;303            sprintf(buf,"%.3f",0);
;;;304    		TEXT_SetTextColor(hItem, GUI_GREEN);//设置字体颜色
;;;305            TEXT_SetFont(hItem,&GUI_FontD24x32);//设定文本字体
;;;306    		GUI_UC_SetEncodeUTF8();        
;;;307    		TEXT_SetText(hItem,buf);
;;;308            
;;;309            hItem = WM_GetDialogItem(pMsg->hWin, ID_TEXT_115);
;;;310            sprintf(buf,"%05d",0);
;;;311            TEXT_SetTextColor(hItem, GUI_GREEN);//设置字体颜色
;;;312            TEXT_SetFont(hItem,&GUI_FontD24x32);//设定文本字体
;;;313            GUI_UC_SetEncodeUTF8();        
;;;314            TEXT_SetText(hItem,buf);
;;;315            
;;;316            hItem = WM_GetDialogItem(pMsg->hWin, ID_TEXT_125);
;;;317            TEXT_SetTextColor(hItem, GUI_GREEN);//设置字体颜色
;;;318            TEXT_SetFont(hItem,&GUI_Font24_1);//设定文本字体       
;;;319            sprintf(buf,"%.1f",temp);
;;;320            TEXT_SetText(hItem,buf);
;;;321            
;;;322        // USER START (Optionally insert additional code for further widget initialization)
;;;323        // USER END
;;;324        break;
;;;325      case WM_NOTIFY_PARENT:
;;;326        Id    = WM_GetId(pMsg->hWinSrc);
;;;327        NCode = pMsg->Data.v;
;;;328        switch(Id) {
;;;329        case ID_BUTTON_0: // Notifications sent by 'Button'
;;;330          switch(NCode) {
;;;331          case WM_NOTIFICATION_CLICKED:
;;;332            // USER START (Optionally insert code for reacting on notification message)
;;;333            // USER END
;;;334            break;
;;;335          case WM_NOTIFICATION_RELEASED:
;;;336            // USER START (Optionally insert code for reacting on notification message)
;;;337            // USER END
;;;338            break;
;;;339          // USER START (Optionally insert additional code for further notification handling)
;;;340          // USER END
;;;341          }
;;;342          break;
;;;343        case ID_BUTTON_1: // Notifications sent by 'Button'
;;;344          switch(NCode) {
;;;345          case WM_NOTIFICATION_CLICKED:
;;;346            // USER START (Optionally insert code for reacting on notification message)
;;;347            // USER END
;;;348            break;
;;;349          case WM_NOTIFICATION_RELEASED:
;;;350    				
;;;351            // USER START (Optionally insert code for reacting on notification message)
;;;352            // USER END
;;;353            break;
;;;354          // USER START (Optionally insert additional code for further notification handling)
;;;355          // USER END
;;;356          }
;;;357          break;
;;;358        case ID_BUTTON_2: // Notifications sent by 'Button'
;;;359          switch(NCode) {
;;;360          case WM_NOTIFICATION_CLICKED:
;;;361            // USER START (Optionally insert code for reacting on notification message)
;;;362            // USER END
;;;363            break;
;;;364          case WM_NOTIFICATION_RELEASED:
;;;365            // USER START (Optionally insert code for reacting on notification message)
;;;366            // USER END
;;;367            break;
;;;368          // USER START (Optionally insert additional code for further notification handling)
;;;369          // USER END
;;;370          }
;;;371          break;
;;;372        case ID_BUTTON_3: // Notifications sent by 'Button'
;;;373          switch(NCode) {
;;;374          case WM_NOTIFICATION_CLICKED:
;;;375            // USER START (Optionally insert code for reacting on notification message)
;;;376            // USER END
;;;377            break;
;;;378          case WM_NOTIFICATION_RELEASED:
;;;379            // USER START (Optionally insert code for reacting on notification message)
;;;380            // USER END
;;;381            break;
;;;382          // USER START (Optionally insert additional code for further notification handling)
;;;383          // USER END
;;;384          }
;;;385          break;
;;;386        case ID_BUTTON_4: // Notifications sent by 'Button'
;;;387          switch(NCode) {
;;;388          case WM_NOTIFICATION_CLICKED:
;;;389            // USER START (Optionally insert code for reacting on notification message)
;;;390            // USER END
;;;391            break;
;;;392          case WM_NOTIFICATION_RELEASED:
;;;393            // USER START (Optionally insert code for reacting on notification message)
;;;394            // USER END
;;;395            break;
;;;396          // USER START (Optionally insert additional code for further notification handling)
;;;397          // USER END
;;;398          }
;;;399          break;
;;;400        case ID_BUTTON_5: // Notifications sent by 'Button'
;;;401          switch(NCode) {
;;;402          case WM_NOTIFICATION_CLICKED:
;;;403            // USER START (Optionally insert code for reacting on notification message)
;;;404            // USER END
;;;405            break;
;;;406          case WM_NOTIFICATION_RELEASED:
;;;407            // USER START (Optionally insert code for reacting on notification message)
;;;408            // USER END
;;;409            break;
;;;410          // USER START (Optionally insert additional code for further notification handling)
;;;411          // USER END
;;;412          }
;;;413          break;
;;;414        // USER START (Optionally insert additional code for further Ids)
;;;415        // USER END
;;;416        }
;;;417        break;
;;;418      // USER START (Optionally insert additional message handling)
;;;419      // USER END
;;;420      default:
;;;421        WM_DefaultProc(pMsg);
00005e  4620              MOV      r0,r4
000060  f7fffffe          BL       WM_DefaultProc
                  |L7.100|
;;;422        break;
;;;423      }
;;;424    }
000064  b003              ADD      sp,sp,#0xc
000066  ecbd8b02          VPOP     {d8}
00006a  e8bd8ff0          POP      {r4-r11,pc}
                  |L7.110|
00006e  4640              MOV      r0,r8                 ;93
000070  f7fffffe          BL       GUI_SetColor
000074  231a              MOVS     r3,#0x1a              ;94
000076  f44f72f0          MOV      r2,#0x1e0             ;94
00007a  2119              MOVS     r1,#0x19              ;94
00007c  2000              MOVS     r0,#0                 ;94
00007e  f7fffffe          BL       GUI_FillRect
000082  f24a50ff          MOV      r0,#0xa5ff            ;95
000086  f7fffffe          BL       GUI_SetColor
00008a  48e4              LDR      r0,|L7.1052|
00008c  f7fffffe          BL       GUI_SetFont
000090  f7fffffe          BL       GUI_UC_SetEncodeUTF8
000094  2002              MOVS     r0,#2                 ;98
000096  f7fffffe          BL       GUI_SetTextMode
00009a  2201              MOVS     r2,#1                 ;99
00009c  2105              MOVS     r1,#5                 ;99
00009e  a0e0              ADR      r0,|L7.1056|
0000a0  f7fffffe          BL       GUI_DispStringAt
0000a4  4640              MOV      r0,r8                 ;100
0000a6  f7fffffe          BL       GUI_SetColor
0000aa  48df              LDR      r0,|L7.1064|
0000ac  f7fffffe          BL       GUI_SetFont
0000b0  f7fffffe          BL       GUI_UC_SetEncodeUTF8
0000b4  2002              MOVS     r0,#2                 ;103
0000b6  f7fffffe          BL       GUI_SetTextMode
0000ba  2203              MOVS     r2,#3                 ;104
0000bc  2182              MOVS     r1,#0x82              ;104
0000be  a0db              ADR      r0,|L7.1068|
0000c0  f7fffffe          BL       GUI_DispStringAt
0000c4  4640              MOV      r0,r8                 ;105
0000c6  f7fffffe          BL       GUI_SetColor
0000ca  48dc              LDR      r0,|L7.1084|
0000cc  f7fffffe          BL       GUI_SetFont
0000d0  f24014b3          MOV      r4,#0x1b3             ;112
0000d4  224b              MOVS     r2,#0x4b              ;112
0000d6  4621              MOV      r1,r4                 ;112
0000d8  a0d9              ADR      r0,|L7.1088|
0000da  f7fffffe          BL       GUI_DispStringAt
0000de  2296              MOVS     r2,#0x96              ;113
0000e0  4621              MOV      r1,r4                 ;113
0000e2  a0d8              ADR      r0,|L7.1092|
0000e4  f7fffffe          BL       GUI_DispStringAt
0000e8  48d7              LDR      r0,|L7.1096|
0000ea  f7fffffe          BL       GUI_SetFont
0000ee  4648              MOV      r0,r9                 ;116
0000f0  f7fffffe          BL       GUI_SetColor
0000f4  22be              MOVS     r2,#0xbe              ;117
0000f6  211c              MOVS     r1,#0x1c              ;117
0000f8  a0d4              ADR      r0,|L7.1100|
0000fa  f7fffffe          BL       GUI_DispStringAt
0000fe  4648              MOV      r0,r9                 ;118
000100  f7fffffe          BL       GUI_SetColor
000104  22c4              MOVS     r2,#0xc4              ;119
000106  21d9              MOVS     r1,#0xd9              ;119
000108  a0d1              ADR      r0,|L7.1104|
00010a  f7fffffe          BL       GUI_DispStringAt
00010e  22bb              MOVS     r2,#0xbb              ;120
000110  21ee              MOVS     r1,#0xee              ;120
000112  a0d0              ADR      r0,|L7.1108|
000114  f7fffffe          BL       GUI_DispStringAt
000118  4638              MOV      r0,r7                 ;122
00011a  f7fffffe          BL       GUI_SetColor
00011e  48ce              LDR      r0,|L7.1112|
000120  f7fffffe          BL       GUI_SetFont
000124  2202              MOVS     r2,#2                 ;124
000126  f44f71ab          MOV      r1,#0x156             ;124
00012a  a0cc              ADR      r0,|L7.1116|
00012c  f7fffffe          BL       GUI_DispStringAt
000130  48c2              LDR      r0,|L7.1084|
000132  f7fffffe          BL       GUI_SetFont
000136  2202              MOVS     r2,#2                 ;126
000138  f44f71af          MOV      r1,#0x15e             ;126
00013c  a0c8              ADR      r0,|L7.1120|
00013e  f7fffffe          BL       GUI_DispStringAt
000142  e78f              B        |L7.100|
                  |L7.324|
000144  e0c6              B        |L7.724|
                  |L7.326|
000146  e2ca              B        |L7.1758|
000148  e7ff              B        |L7.330|
                  |L7.330|
00014a  68e0              LDR      r0,[r4,#0xc]          ;130
00014c  f7fffffe          BL       WM_GetTimerId
000150  2803              CMP      r0,#3                 ;130
000152  d187              BNE      |L7.100|
000154  48c3              LDR      r0,|L7.1124|
000156  7800              LDRB     r0,[r0,#0]            ;132  ; clear_flag2
000158  4fc3              LDR      r7,|L7.1128|
00015a  2801              CMP      r0,#1                 ;132
00015c  d04f              BEQ      |L7.510|
00015e  4651              MOV      r1,r10                ;145
000160  6860              LDR      r0,[r4,#4]            ;145
000162  f7fffffe          BL       WM_GetDialogItem
000166  4605              MOV      r5,r0                 ;145
000168  6838              LDR      r0,[r7,#0]            ;146  ; DISS_POW_Voltage
00016a  f7fffffe          BL       __aeabi_f2d
00016e  ec410b10          VMOV     d0,r0,r1              ;146
000172  a1be              ADR      r1,|L7.1132|
000174  ec532b10          VMOV     r2,r3,d0              ;146
000178  a801              ADD      r0,sp,#4              ;146
00017a  f7fffffe          BL       __2sprintf
00017e  a901              ADD      r1,sp,#4              ;147
000180  4628              MOV      r0,r5                 ;147
000182  f7fffffe          BL       TEXT_SetText
                  |L7.390|
000186  4659              MOV      r1,r11                ;151
000188  6860              LDR      r0,[r4,#4]            ;151
00018a  f7fffffe          BL       WM_GetDialogItem
00018e  4605              MOV      r5,r0                 ;151
000190  48b8              LDR      r0,|L7.1140|
000192  6800              LDR      r0,[r0,#0]            ;152  ; DISS_POW_Current
000194  f7fffffe          BL       __aeabi_f2d
000198  ec410b10          VMOV     d0,r0,r1              ;152
00019c  a1b6              ADR      r1,|L7.1144|
00019e  ec532b10          VMOV     r2,r3,d0              ;152
0001a2  a801              ADD      r0,sp,#4              ;152
0001a4  f7fffffe          BL       __2sprintf
0001a8  a901              ADD      r1,sp,#4              ;153
0001aa  4628              MOV      r0,r5                 ;153
0001ac  f7fffffe          BL       TEXT_SetText
0001b0  4fb3              LDR      r7,|L7.1152|
0001b2  7838              LDRB     r0,[r7,#0]            ;156  ; pow_sw
0001b4  f6400895          MOV      r8,#0x895             ;163
0001b8  2801              CMP      r0,#1                 ;156
0001ba  d04e              BEQ      |L7.602|
0001bc  4641              MOV      r1,r8                 ;176
0001be  6860              LDR      r0,[r4,#4]            ;176
0001c0  f7fffffe          BL       WM_GetDialogItem
0001c4  a19c              ADR      r1,|L7.1080|
0001c6  f7fffffe          BL       TEXT_SetText
                  |L7.458|
0001ca  f640110c          MOV      r1,#0x90c             ;179
0001ce  6860              LDR      r0,[r4,#4]            ;179
0001d0  f7fffffe          BL       WM_GetDialogItem
0001d4  4605              MOV      r5,r0                 ;179
0001d6  6830              LDR      r0,[r6,#0]            ;180  ; temp
0001d8  f7fffffe          BL       __aeabi_f2d
0001dc  ec410b10          VMOV     d0,r0,r1              ;180
0001e0  a1a8              ADR      r1,|L7.1156|
0001e2  ec532b10          VMOV     r2,r3,d0              ;180
0001e6  a801              ADD      r0,sp,#4              ;180
0001e8  f7fffffe          BL       __2sprintf
0001ec  a901              ADD      r1,sp,#4              ;181
0001ee  4628              MOV      r0,r5                 ;181
0001f0  f7fffffe          BL       TEXT_SetText
0001f4  2132              MOVS     r1,#0x32              ;183
0001f6  68e0              LDR      r0,[r4,#0xc]          ;183
0001f8  f7fffffe          BL       WM_RestartTimer
0001fc  e732              B        |L7.100|
                  |L7.510|
0001fe  48a3              LDR      r0,|L7.1164|
000200  ed970a00          VLDR     s0,[r7,#0]            ;134
000204  edd00a00          VLDR     s1,[r0,#0]            ;134
000208  eeb40ae0          VCMPE.F32 s0,s1                 ;134
00020c  eef1fa10          VMRS     APSR_nzcv,FPSCR       ;134
000210  d80e              BHI      |L7.560|
000212  4651              MOV      r1,r10                ;136
000214  6860              LDR      r0,[r4,#4]            ;136
000216  f7fffffe          BL       WM_GetDialogItem
00021a  4605              MOV      r5,r0                 ;136
00021c  2200              MOVS     r2,#0                 ;137
00021e  a193              ADR      r1,|L7.1132|
000220  a801              ADD      r0,sp,#4              ;137
000222  f7fffffe          BL       __2sprintf
000226  a901              ADD      r1,sp,#4              ;138
000228  4628              MOV      r0,r5                 ;138
00022a  f7fffffe          BL       TEXT_SetText
00022e  e7aa              B        |L7.390|
                  |L7.560|
000230  4651              MOV      r1,r10                ;140
000232  6860              LDR      r0,[r4,#4]            ;140
000234  f7fffffe          BL       WM_GetDialogItem
000238  4605              MOV      r5,r0                 ;140
00023a  6838              LDR      r0,[r7,#0]            ;141  ; DISS_POW_Voltage
00023c  f7fffffe          BL       __aeabi_f2d
000240  ec410b10          VMOV     d0,r0,r1              ;141
000244  a189              ADR      r1,|L7.1132|
000246  ec532b10          VMOV     r2,r3,d0              ;141
00024a  a801              ADD      r0,sp,#4              ;141
00024c  f7fffffe          BL       __2sprintf
000250  a901              ADD      r1,sp,#4              ;142
000252  4628              MOV      r0,r5                 ;142
000254  f7fffffe          BL       TEXT_SetText
000258  e795              B        |L7.390|
                  |L7.602|
00025a  488d              LDR      r0,|L7.1168|
00025c  f8df9234          LDR      r9,|L7.1172|
000260  ed900a00          VLDR     s0,[r0,#0]            ;158
000264  eebd0ac0          VCVT.S32.F32 s0,s0                 ;158
000268  ee100a10          VMOV     r0,s0                 ;158
00026c  f8a90000          STRH     r0,[r9,#0]            ;158
000270  f640110b          MOV      r1,#0x90b             ;159
000274  6860              LDR      r0,[r4,#4]            ;159
000276  f7fffffe          BL       WM_GetDialogItem
00027a  4605              MOV      r5,r0                 ;159
00027c  f8b92000          LDRH     r2,[r9,#0]            ;160  ; battery_c
000280  a185              ADR      r1,|L7.1176|
000282  a801              ADD      r0,sp,#4              ;160
000284  f7fffffe          BL       __2sprintf
000288  a901              ADD      r1,sp,#4              ;161
00028a  4628              MOV      r0,r5                 ;161
00028c  f7fffffe          BL       TEXT_SetText
000290  7878              LDRB     r0,[r7,#1]            ;162  ; status_flash
000292  b148              CBZ      r0,|L7.680|
000294  4641              MOV      r1,r8                 ;170
000296  6860              LDR      r0,[r4,#4]            ;170
000298  f7fffffe          BL       WM_GetDialogItem
00029c  a166              ADR      r1,|L7.1080|
00029e  f7fffffe          BL       TEXT_SetText
0002a2  2000              MOVS     r0,#0                 ;172
0002a4  7078              STRB     r0,[r7,#1]            ;172
0002a6  e790              B        |L7.458|
                  |L7.680|
0002a8  4641              MOV      r1,r8                 ;163
0002aa  6860              LDR      r0,[r4,#4]            ;163
0002ac  f7fffffe          BL       WM_GetDialogItem
0002b0  4605              MOV      r5,r0                 ;163
0002b2  21ff              MOVS     r1,#0xff              ;164
0002b4  4628              MOV      r0,r5                 ;164
0002b6  f7fffffe          BL       TEXT_SetTextColor
0002ba  4979              LDR      r1,|L7.1184|
0002bc  4628              MOV      r0,r5                 ;165
0002be  f7fffffe          BL       TEXT_SetFont
0002c2  f7fffffe          BL       GUI_UC_SetEncodeUTF8
0002c6  a177              ADR      r1,|L7.1188|
0002c8  4628              MOV      r0,r5                 ;167
0002ca  f7fffffe          BL       TEXT_SetText
0002ce  2001              MOVS     r0,#1                 ;168
0002d0  7078              STRB     r0,[r7,#1]            ;168
0002d2  e77a              B        |L7.458|
                  |L7.724|
0002d4  6865              LDR      r5,[r4,#4]            ;190
0002d6  2100              MOVS     r1,#0                 ;191
0002d8  4628              MOV      r0,r5                 ;191
0002da  f7fffffe          BL       WINDOW_SetBkColor
0002de  2300              MOVS     r3,#0                 ;192
0002e0  f44f727a          MOV      r2,#0x3e8             ;192
0002e4  2103              MOVS     r1,#3                 ;192
0002e6  4628              MOV      r0,r5                 ;192
0002e8  f7fffffe          BL       WM_CreateTimer
0002ec  f6400102          MOV      r1,#0x802             ;204
0002f0  6860              LDR      r0,[r4,#4]            ;204
0002f2  f7fffffe          BL       WM_GetDialogItem
0002f6  4605              MOV      r5,r0                 ;204
0002f8  4969              LDR      r1,|L7.1184|
0002fa  4628              MOV      r0,r5                 ;206
0002fc  f7fffffe          BL       BUTTON_SetFont
000300  f7fffffe          BL       GUI_UC_SetEncodeUTF8
000304  a16a              ADR      r1,|L7.1200|
000306  4628              MOV      r0,r5                 ;208
000308  f7fffffe          BL       BUTTON_SetText
00030c  f6400103          MOV      r1,#0x803             ;212
000310  6860              LDR      r0,[r4,#4]            ;212
000312  f7fffffe          BL       WM_GetDialogItem
000316  4605              MOV      r5,r0                 ;212
000318  4961              LDR      r1,|L7.1184|
00031a  4628              MOV      r0,r5                 ;214
00031c  f7fffffe          BL       BUTTON_SetFont
000320  f7fffffe          BL       GUI_UC_SetEncodeUTF8
000324  a166              ADR      r1,|L7.1216|
000326  4628              MOV      r0,r5                 ;216
000328  f7fffffe          BL       BUTTON_SetText
00032c  f6400104          MOV      r1,#0x804             ;220
000330  6860              LDR      r0,[r4,#4]            ;220
000332  f7fffffe          BL       WM_GetDialogItem
000336  4605              MOV      r5,r0                 ;220
000338  2101              MOVS     r1,#1                 ;221
00033a  4628              MOV      r0,r5                 ;221
00033c  f7fffffe          BL       BUTTON_SetPressed
000340  4957              LDR      r1,|L7.1184|
000342  4628              MOV      r0,r5                 ;223
000344  f7fffffe          BL       BUTTON_SetFont
000348  f7fffffe          BL       GUI_UC_SetEncodeUTF8
00034c  a160              ADR      r1,|L7.1232|
00034e  4628              MOV      r0,r5                 ;225
000350  f7fffffe          BL       BUTTON_SetText
000354  f6400105          MOV      r1,#0x805             ;229
000358  6860              LDR      r0,[r4,#4]            ;229
00035a  f7fffffe          BL       WM_GetDialogItem
00035e  4605              MOV      r5,r0                 ;229
000360  494f              LDR      r1,|L7.1184|
000362  4628              MOV      r0,r5                 ;231
000364  f7fffffe          BL       BUTTON_SetFont
000368  f7fffffe          BL       GUI_UC_SetEncodeUTF8
00036c  a15c              ADR      r1,|L7.1248|
00036e  4628              MOV      r0,r5                 ;233
000370  f7fffffe          BL       BUTTON_SetText
000374  f6400106          MOV      r1,#0x806             ;237
000378  6860              LDR      r0,[r4,#4]            ;237
00037a  f7fffffe          BL       WM_GetDialogItem
00037e  4605              MOV      r5,r0                 ;237
000380  4947              LDR      r1,|L7.1184|
000382  4628              MOV      r0,r5                 ;239
000384  f7fffffe          BL       BUTTON_SetFont
000388  f7fffffe          BL       GUI_UC_SetEncodeUTF8
00038c  a157              ADR      r1,|L7.1260|
00038e  4628              MOV      r0,r5                 ;241
000390  f7fffffe          BL       BUTTON_SetText
000394  f6400107          MOV      r1,#0x807             ;244
000398  6860              LDR      r0,[r4,#4]            ;244
00039a  f7fffffe          BL       WM_GetDialogItem
00039e  4605              MOV      r5,r0                 ;244
0003a0  4649              MOV      r1,r9                 ;245
0003a2  4628              MOV      r0,r5                 ;245
0003a4  f7fffffe          BL       TEXT_SetTextColor
0003a8  4927              LDR      r1,|L7.1096|
0003aa  4628              MOV      r0,r5                 ;246
0003ac  f7fffffe          BL       TEXT_SetFont
0003b0  f7fffffe          BL       GUI_UC_SetEncodeUTF8
0003b4  a14f              ADR      r1,|L7.1268|
0003b6  4628              MOV      r0,r5                 ;248
0003b8  f7fffffe          BL       TEXT_SetText
0003bc  f6400108          MOV      r1,#0x808             ;250
0003c0  6860              LDR      r0,[r4,#4]            ;250
0003c2  f7fffffe          BL       WM_GetDialogItem
0003c6  4605              MOV      r5,r0                 ;250
0003c8  4649              MOV      r1,r9                 ;251
0003ca  4628              MOV      r0,r5                 ;251
0003cc  f7fffffe          BL       TEXT_SetTextColor
0003d0  491d              LDR      r1,|L7.1096|
0003d2  4628              MOV      r0,r5                 ;252
0003d4  f7fffffe          BL       TEXT_SetFont
0003d8  f7fffffe          BL       GUI_UC_SetEncodeUTF8
0003dc  a146              ADR      r1,|L7.1272|
0003de  4628              MOV      r0,r5                 ;254
0003e0  f7fffffe          BL       TEXT_SetText
0003e4  f44f6102          MOV      r1,#0x820             ;256
0003e8  6860              LDR      r0,[r4,#4]            ;256
0003ea  f7fffffe          BL       WM_GetDialogItem
0003ee  4605              MOV      r5,r0                 ;256
0003f0  4649              MOV      r1,r9                 ;257
0003f2  4628              MOV      r0,r5                 ;257
0003f4  f7fffffe          BL       TEXT_SetTextColor
0003f8  4913              LDR      r1,|L7.1096|
0003fa  4628              MOV      r0,r5                 ;258
0003fc  f7fffffe          BL       TEXT_SetFont
000400  f7fffffe          BL       GUI_UC_SetEncodeUTF8
000404  a10e              ADR      r1,|L7.1088|
000406  e079              B        |L7.1276|
                  |L7.1032|
                          DCD      Run_Control
                  |L7.1036|
00040c  42c80000          DCFS     0x42c80000 ; 100
                  |L7.1040|
000410  447a0000          DCFS     0x447a0000 ; 1000
                  |L7.1044|
                          DCD      0x00d3d3d3
                  |L7.1048|
                          DCD      temp
                  |L7.1052|
                          DCD      GUI_Fontsymbol
                  |L7.1056|
000420  4a696e6b          DCB      "Jinko",0
000424  6f00    
000426  00                DCB      0
000427  00                DCB      0
                  |L7.1064|
                          DCD      GUI_FontHZ20S
                  |L7.1068|
00042c  e6b58be9          DCB      230,181,139,233,135,143,230,152,190,231,164,186
000430  878fe698
000434  bee7a4ba
                  |L7.1080|
000438  00                DCB      0
000439  00                DCB      0
00043a  00                DCB      0
00043b  00                DCB      0
                  |L7.1084|
                          DCD      GUI_Font24_1
                  |L7.1088|
000440  5600              DCB      "V",0
000442  00                DCB      0
000443  00                DCB      0
                  |L7.1092|
000444  4100              DCB      "A",0
000446  00                DCB      0
000447  00                DCB      0
                  |L7.1096|
                          DCD      GUI_FontEN40
                  |L7.1100|
00044c  433a00            DCB      "C:",0
00044f  00                DCB      0
                  |L7.1104|
000450  6d00              DCB      "m",0
000452  00                DCB      0
000453  00                DCB      0
                  |L7.1108|
000454  414800            DCB      "AH",0
000457  00                DCB      0
                  |L7.1112|
                          DCD      GUI_Fontunit
                  |L7.1116|
00045c  c2b000            DCB      194,176,0
00045f  00                DCB      0
                  |L7.1120|
000460  4300              DCB      "C",0
000462  00                DCB      0
000463  00                DCB      0
                  |L7.1124|
                          DCD      clear_flag2
                  |L7.1128|
                          DCD      DISS_POW_Voltage
                  |L7.1132|
00046c  252e3266          DCB      "%.2f",0
000470  00      
000471  00                DCB      0
000472  00                DCB      0
000473  00                DCB      0
                  |L7.1140|
                          DCD      DISS_POW_Current
                  |L7.1144|
000478  252e3366          DCB      "%.3f",0
00047c  00      
00047d  00                DCB      0
00047e  00                DCB      0
00047f  00                DCB      0
                  |L7.1152|
                          DCD      ||.data||
                  |L7.1156|
000484  252e3166          DCB      "%.1f",0
000488  00      
000489  00                DCB      0
00048a  00                DCB      0
00048b  00                DCB      0
                  |L7.1164|
                          DCD      clear_pv
                  |L7.1168|
                          DCD      bc_raw
                  |L7.1172|
                          DCD      battery_c
                  |L7.1176|
000498  25303564          DCB      "%05d",0
00049c  00      
00049d  00                DCB      0
00049e  00                DCB      0
00049f  00                DCB      0
                  |L7.1184|
                          DCD      GUI_FontHZ16
                  |L7.1188|
0004a4  e58585e7          DCB      229,133,133,231,148,181,228,184,173,0
0004a8  94b5e4b8
0004ac  ad00    
0004ae  00                DCB      0
0004af  00                DCB      0
                  |L7.1200|
0004b0  e58685e9          DCB      229,134,133,233,152,187,230,181,139,232,175,149,0
0004b4  98bbe6b5
0004b8  8be8af95
0004bc  00      
0004bd  00                DCB      0
0004be  00                DCB      0
0004bf  00                DCB      0
                  |L7.1216|
0004c0  e7a88be6          DCB      231,168,139,230,142,167,232,180,159,232,189,189,0
0004c4  8ea7e8b4
0004c8  9fe8bdbd
0004cc  00      
0004cd  00                DCB      0
0004ce  00                DCB      0
0004cf  00                DCB      0
                  |L7.1232|
0004d0  e7a88be6          DCB      231,168,139,230,142,167,231,148,181,230,186,144,0
0004d4  8ea7e794
0004d8  b5e6ba90
0004dc  00      
0004dd  00                DCB      0
0004de  00                DCB      0
0004df  00                DCB      0
                  |L7.1248|
0004e0  e58585e6          DCB      229,133,133,230,148,190,231,148,181,0
0004e4  94bee794
0004e8  b500    
0004ea  00                DCB      0
0004eb  00                DCB      0
                  |L7.1260|
0004ec  e69bb2e7          DCB      230,155,178,231,186,191,0
0004f0  babf00  
0004f3  00                DCB      0
                  |L7.1268|
0004f4  563a00            DCB      "V:",0
0004f7  00                DCB      0
                  |L7.1272|
0004f8  493a00            DCB      "I:",0
0004fb  00                DCB      0
                  |L7.1276|
0004fc  4628              MOV      r0,r5                 ;260
0004fe  f7fffffe          BL       TEXT_SetText
000502  f6400121          MOV      r1,#0x821             ;262
000506  6860              LDR      r0,[r4,#4]            ;262
000508  f7fffffe          BL       WM_GetDialogItem
00050c  4605              MOV      r5,r0                 ;262
00050e  4649              MOV      r1,r9                 ;263
000510  4628              MOV      r0,r5                 ;263
000512  f7fffffe          BL       TEXT_SetTextColor
000516  4976              LDR      r1,|L7.1776|
000518  4628              MOV      r0,r5                 ;264
00051a  f7fffffe          BL       TEXT_SetFont
00051e  f7fffffe          BL       GUI_UC_SetEncodeUTF8
000522  f2af01e0          ADR      r1,|L7.1092|
000526  4628              MOV      r0,r5                 ;266
000528  f7fffffe          BL       TEXT_SetText
00052c  f640013d          MOV      r1,#0x83d             ;268
000530  6860              LDR      r0,[r4,#4]            ;268
000532  f7fffffe          BL       WM_GetDialogItem
000536  4605              MOV      r5,r0                 ;268
000538  2100              MOVS     r1,#0                 ;269
00053a  4628              MOV      r0,r5                 ;269
00053c  f7fffffe          BL       TEXT_SetTextColor
000540  496c              LDR      r1,|L7.1780|
000542  4628              MOV      r0,r5                 ;270
000544  f7fffffe          BL       TEXT_SetBkColor
000548  496b              LDR      r1,|L7.1784|
00054a  4628              MOV      r0,r5                 ;271
00054c  f7fffffe          BL       TEXT_SetFont
000550  f7fffffe          BL       GUI_UC_SetEncodeUTF8
000554  a169              ADR      r1,|L7.1788|
000556  4628              MOV      r0,r5                 ;273
000558  f7fffffe          BL       TEXT_SetText
00055c  f640013e          MOV      r1,#0x83e             ;275
000560  6860              LDR      r0,[r4,#4]            ;275
000562  f7fffffe          BL       WM_GetDialogItem
000566  4605              MOV      r5,r0                 ;275
000568  4641              MOV      r1,r8                 ;276
00056a  4628              MOV      r0,r5                 ;276
00056c  f7fffffe          BL       TEXT_SetTextColor
000570  4961              LDR      r1,|L7.1784|
000572  4628              MOV      r0,r5                 ;277
000574  f7fffffe          BL       TEXT_SetFont
000578  f7fffffe          BL       GUI_UC_SetEncodeUTF8
00057c  a163              ADR      r1,|L7.1804|
00057e  4628              MOV      r0,r5                 ;279
000580  f7fffffe          BL       TEXT_SetText
000584  f6400166          MOV      r1,#0x866             ;281
000588  6860              LDR      r0,[r4,#4]            ;281
00058a  f7fffffe          BL       WM_GetDialogItem
00058e  4605              MOV      r5,r0                 ;281
000590  ee180a90          VMOV     r0,s17                ;282
000594  f7fffffe          BL       __aeabi_f2d
000598  ec410b10          VMOV     d0,r0,r1              ;282
00059c  ec532b10          VMOV     r2,r3,d0              ;282
0005a0  f2af1138          ADR      r1,|L7.1132|
0005a4  a801              ADD      r0,sp,#4              ;282
0005a6  f7fffffe          BL       __2sprintf
0005aa  4641              MOV      r1,r8                 ;283
0005ac  4628              MOV      r0,r5                 ;283
0005ae  f7fffffe          BL       TEXT_SetTextColor
0005b2  495a              LDR      r1,|L7.1820|
0005b4  4628              MOV      r0,r5                 ;284
0005b6  f7fffffe          BL       TEXT_SetFont
0005ba  f7fffffe          BL       GUI_UC_SetEncodeUTF8
0005be  a901              ADD      r1,sp,#4              ;286
0005c0  4628              MOV      r0,r5                 ;286
0005c2  f7fffffe          BL       TEXT_SetText
0005c6  f6400167          MOV      r1,#0x867             ;288
0005ca  6860              LDR      r0,[r4,#4]            ;288
0005cc  f7fffffe          BL       WM_GetDialogItem
0005d0  4605              MOV      r5,r0                 ;288
0005d2  ee180a10          VMOV     r0,s16                ;289
0005d6  f7fffffe          BL       __aeabi_f2d
0005da  ec410b10          VMOV     d0,r0,r1              ;289
0005de  ec532b10          VMOV     r2,r3,d0              ;289
0005e2  f2af116c          ADR      r1,|L7.1144|
0005e6  a801              ADD      r0,sp,#4              ;289
0005e8  f7fffffe          BL       __2sprintf
0005ec  4641              MOV      r1,r8                 ;290
0005ee  4628              MOV      r0,r5                 ;290
0005f0  f7fffffe          BL       TEXT_SetTextColor
0005f4  4949              LDR      r1,|L7.1820|
0005f6  4628              MOV      r0,r5                 ;291
0005f8  f7fffffe          BL       TEXT_SetFont
0005fc  f7fffffe          BL       GUI_UC_SetEncodeUTF8
000600  a901              ADD      r1,sp,#4              ;293
000602  4628              MOV      r0,r5                 ;293
000604  f7fffffe          BL       TEXT_SetText
000608  4651              MOV      r1,r10                ;295
00060a  6860              LDR      r0,[r4,#4]            ;295
00060c  f7fffffe          BL       WM_GetDialogItem
000610  4605              MOV      r5,r0                 ;295
000612  2200              MOVS     r2,#0                 ;296
000614  f2af11ac          ADR      r1,|L7.1132|
000618  a801              ADD      r0,sp,#4              ;296
00061a  f7fffffe          BL       __2sprintf
00061e  4639              MOV      r1,r7                 ;297
000620  4628              MOV      r0,r5                 ;297
000622  f7fffffe          BL       TEXT_SetTextColor
000626  493e              LDR      r1,|L7.1824|
000628  4628              MOV      r0,r5                 ;298
00062a  f7fffffe          BL       TEXT_SetFont
00062e  f7fffffe          BL       GUI_UC_SetEncodeUTF8
000632  a901              ADD      r1,sp,#4              ;300
000634  4628              MOV      r0,r5                 ;300
000636  f7fffffe          BL       TEXT_SetText
00063a  4659              MOV      r1,r11                ;302
00063c  6860              LDR      r0,[r4,#4]            ;302
00063e  f7fffffe          BL       WM_GetDialogItem
000642  4605              MOV      r5,r0                 ;302
000644  2200              MOVS     r2,#0                 ;303
000646  f2af11d0          ADR      r1,|L7.1144|
00064a  a801              ADD      r0,sp,#4              ;303
00064c  f7fffffe          BL       __2sprintf
000650  4639              MOV      r1,r7                 ;304
000652  4628              MOV      r0,r5                 ;304
000654  f7fffffe          BL       TEXT_SetTextColor
000658  4931              LDR      r1,|L7.1824|
00065a  4628              MOV      r0,r5                 ;305
00065c  f7fffffe          BL       TEXT_SetFont
000660  f7fffffe          BL       GUI_UC_SetEncodeUTF8
000664  a901              ADD      r1,sp,#4              ;307
000666  4628              MOV      r0,r5                 ;307
000668  f7fffffe          BL       TEXT_SetText
00066c  f640110b          MOV      r1,#0x90b             ;309
000670  6860              LDR      r0,[r4,#4]            ;309
000672  f7fffffe          BL       WM_GetDialogItem
000676  4605              MOV      r5,r0                 ;309
000678  2200              MOVS     r2,#0                 ;310
00067a  f2af11e4          ADR      r1,|L7.1176|
00067e  a801              ADD      r0,sp,#4              ;310
000680  f7fffffe          BL       __2sprintf
000684  4639              MOV      r1,r7                 ;311
000686  4628              MOV      r0,r5                 ;311
000688  f7fffffe          BL       TEXT_SetTextColor
00068c  4924              LDR      r1,|L7.1824|
00068e  4628              MOV      r0,r5                 ;312
000690  f7fffffe          BL       TEXT_SetFont
000694  f7fffffe          BL       GUI_UC_SetEncodeUTF8
000698  a901              ADD      r1,sp,#4              ;314
00069a  4628              MOV      r0,r5                 ;314
00069c  f7fffffe          BL       TEXT_SetText
0006a0  f640110c          MOV      r1,#0x90c             ;316
0006a4  6860              LDR      r0,[r4,#4]            ;316
0006a6  f7fffffe          BL       WM_GetDialogItem
0006aa  4604              MOV      r4,r0                 ;316
0006ac  4639              MOV      r1,r7                 ;317
0006ae  4620              MOV      r0,r4                 ;317
0006b0  f7fffffe          BL       TEXT_SetTextColor
0006b4  4919              LDR      r1,|L7.1820|
0006b6  4620              MOV      r0,r4                 ;318
0006b8  f7fffffe          BL       TEXT_SetFont
0006bc  6830              LDR      r0,[r6,#0]            ;319  ; temp
0006be  f7fffffe          BL       __aeabi_f2d
0006c2  ec410b10          VMOV     d0,r0,r1              ;319
0006c6  ec532b10          VMOV     r2,r3,d0              ;319
0006ca  f2af2148          ADR      r1,|L7.1156|
0006ce  a801              ADD      r0,sp,#4              ;319
0006d0  f7fffffe          BL       __2sprintf
0006d4  a901              ADD      r1,sp,#4              ;320
0006d6  4620              MOV      r0,r4                 ;320
0006d8  f7fffffe          BL       TEXT_SetText
0006dc  e4c2              B        |L7.100|
                  |L7.1758|
0006de  68a0              LDR      r0,[r4,#8]            ;326
0006e0  f7fffffe          BL       WM_GetId
0006e4  4601              MOV      r1,r0                 ;326
0006e6  68e0              LDR      r0,[r4,#0xc]          ;327
0006e8  f6a10101          SUB      r1,r1,#0x801          ;328
0006ec  e4ba              B        |L7.100|
;;;425    
                          ENDP

0006ee  0000              DCW      0x0000
                  |L7.1776|
                          DCD      GUI_FontEN40
                  |L7.1780|
                          DCD      0x00bfffff
                  |L7.1784|
                          DCD      GUI_Fontset_font
                  |L7.1788|
0006fc  e8be93e5          DCB      232,190,147,229,135,186,231,148,181,229,142,139,0
000700  87bae794
000704  b5e58e8b
000708  00      
000709  00                DCB      0
00070a  00                DCB      0
00070b  00                DCB      0
                  |L7.1804|
00070c  e99990e5          DCB      233,153,144,229,136,182,231,148,181,230,181,129,0
000710  88b6e794
000714  b5e6b581
000718  00      
000719  00                DCB      0
00071a  00                DCB      0
00071b  00                DCB      0
                  |L7.1820|
                          DCD      GUI_Font24_1
                  |L7.1824|
                          DCD      GUI_FontD24x32

                          AREA ||i.test_pow||, CODE, READONLY, ALIGN=2

                  test_pow PROC
;;;874    
;;;875    void test_pow(void)
000000  b570              PUSH     {r4-r6,lr}
;;;876    {
;;;877    
;;;878        if(pow_sw == pow_on && para_set1 == set_1_on)
000002  4834              LDR      r0,|L8.212|
000004  7800              LDRB     r0,[r0,#0]  ; pow_sw
;;;879        {
;;;880            if(DISS_POW_Voltage*100 > set_max_v || DISS_POW_Voltage*100 < set_min_v || DISS_POW_Current * 100 > set_max_c || DISS_POW_Current * 100 < set_min_c)
;;;881            {
;;;882                if(para_set4 == set_4_on){
;;;883                    BEEP_Tiggr();
;;;884                }
;;;885                TM1650_SET_LED(0x68,0x70);//FAIL灯
;;;886                GPIO_SetBits(GPIOD,GPIO_Pin_12);//            
000006  4d34              LDR      r5,|L8.216|
000008  f44f5480          MOV      r4,#0x1000
00000c  2801              CMP      r0,#1                 ;878
00000e  d103              BNE      |L8.24|
000010  4832              LDR      r0,|L8.220|
000012  7800              LDRB     r0,[r0,#0]            ;878  ; para_set1
000014  28ff              CMP      r0,#0xff              ;878
000016  d009              BEQ      |L8.44|
                  |L8.24|
;;;887            }else{
;;;888                GPIO_ResetBits(GPIOD,GPIO_Pin_12);
;;;889                TM1650_SET_LED(0x48,0x71);
;;;890                TM1650_SET_LED(0x68,0xF2);//PASS灯
;;;891            }        
;;;892        }else
;;;893        {
;;;894            TM1650_SET_LED(0x68,0x70);
000018  2170              MOVS     r1,#0x70
00001a  2068              MOVS     r0,#0x68
00001c  f7fffffe          BL       TM1650_SET_LED
;;;895            GPIO_ResetBits(GPIOD,GPIO_Pin_12);//灭灯
000020  4621              MOV      r1,r4
000022  4628              MOV      r0,r5
000024  e8bd4070          POP      {r4-r6,lr}
000028  f7ffbffe          B.W      GPIO_ResetBits
                  |L8.44|
00002c  482c              LDR      r0,|L8.224|
00002e  eddf0a2d          VLDR     s1,|L8.228|
000032  4a2d              LDR      r2,|L8.232|
000034  ed900a00          VLDR     s0,[r0,#0]            ;880
000038  6b90              LDR      r0,[r2,#0x38]         ;880  ; Run_Control
00003a  ee200a20          VMUL.F32 s0,s0,s1              ;880
00003e  ee010a10          VMOV     s2,r0                 ;880
000042  eeb81a41          VCVT.F32.U32 s2,s2                 ;880
000046  eeb40ac1          VCMPE.F32 s0,s2                 ;880
00004a  eef1fa10          VMRS     APSR_nzcv,FPSCR       ;880
00004e  dc22              BGT      |L8.150|
000050  6bd0              LDR      r0,[r2,#0x3c]         ;880  ; Run_Control
000052  ee010a10          VMOV     s2,r0                 ;880
000056  eeb81a41          VCVT.F32.U32 s2,s2                 ;880
00005a  eeb40ac1          VCMPE.F32 s0,s2                 ;880
00005e  eef1fa10          VMRS     APSR_nzcv,FPSCR       ;880
000062  d318              BCC      |L8.150|
000064  4821              LDR      r0,|L8.236|
000066  ed900a00          VLDR     s0,[r0,#0]            ;880
00006a  6c90              LDR      r0,[r2,#0x48]         ;880  ; Run_Control
00006c  ee200a20          VMUL.F32 s0,s0,s1              ;880
000070  ee000a90          VMOV     s1,r0                 ;880
000074  eef80a60          VCVT.F32.U32 s1,s1                 ;880
000078  eeb40ae0          VCMPE.F32 s0,s1                 ;880
00007c  eef1fa10          VMRS     APSR_nzcv,FPSCR       ;880
000080  dc09              BGT      |L8.150|
000082  6cd0              LDR      r0,[r2,#0x4c]         ;880  ; Run_Control
000084  ee000a90          VMOV     s1,r0                 ;880
000088  eef80a60          VCVT.F32.U32 s1,s1                 ;880
00008c  eeb40ae0          VCMPE.F32 s0,s1                 ;880
000090  eef1fa10          VMRS     APSR_nzcv,FPSCR       ;880
000094  d20f              BCS      |L8.182|
                  |L8.150|
000096  4816              LDR      r0,|L8.240|
000098  7800              LDRB     r0,[r0,#0]            ;882  ; para_set4
00009a  28ff              CMP      r0,#0xff              ;882
00009c  d101              BNE      |L8.162|
00009e  f7fffffe          BL       BEEP_Tiggr
                  |L8.162|
0000a2  2170              MOVS     r1,#0x70              ;885
0000a4  2068              MOVS     r0,#0x68              ;885
0000a6  f7fffffe          BL       TM1650_SET_LED
0000aa  4621              MOV      r1,r4                 ;886
0000ac  4628              MOV      r0,r5                 ;886
0000ae  e8bd4070          POP      {r4-r6,lr}            ;886
0000b2  f7ffbffe          B.W      GPIO_SetBits
                  |L8.182|
0000b6  4621              MOV      r1,r4                 ;888
0000b8  4628              MOV      r0,r5                 ;888
0000ba  f7fffffe          BL       GPIO_ResetBits
0000be  2171              MOVS     r1,#0x71              ;889
0000c0  2048              MOVS     r0,#0x48              ;889
0000c2  f7fffffe          BL       TM1650_SET_LED
0000c6  e8bd4070          POP      {r4-r6,lr}            ;890
0000ca  21f2              MOVS     r1,#0xf2              ;890
0000cc  2068              MOVS     r0,#0x68              ;890
0000ce  f7ffbffe          B.W      TM1650_SET_LED
;;;896        }
;;;897    }
;;;898    
                          ENDP

0000d2  0000              DCW      0x0000
                  |L8.212|
                          DCD      ||.data||
                  |L8.216|
                          DCD      0x40020c00
                  |L8.220|
                          DCD      para_set1
                  |L8.224|
                          DCD      DISS_POW_Voltage
                  |L8.228|
0000e4  42c80000          DCFS     0x42c80000 ; 100
                  |L8.232|
                          DCD      Run_Control
                  |L8.236|
                          DCD      DISS_POW_Current
                  |L8.240|
                          DCD      para_set4

                          AREA ||.constdata||, DATA, READONLY, ALIGN=2

                  _aDialogCreate1
                          DCD      WINDOW_CreateIndirect
                          DCD      ||.conststring||
000008  08000000          DCW      0x0800,0x0000
00000c  000001e0          DCW      0x0000,0x01e0
000010  01100000          DCW      0x0110,0x0000
                          DCD      0x00000000
                          DCD      0x00000000
                          DCD      BUTTON_CreateIndirect
                          DCD      ||.conststring||+0x7
000024  08020053          DCW      0x0802,0x0053
000028  00e2004d          DCW      0x00e2,0x004d
00002c  002d0000          DCW      0x002d,0x0000
                          DCD      0x00000000
                          DCD      0x00000000
                          DCD      BUTTON_CreateIndirect
                          DCD      ||.conststring||+0x7
000040  080300a3          DCW      0x0803,0x00a3
000044  00e2004d          DCW      0x00e2,0x004d
000048  002d0000          DCW      0x002d,0x0000
                          DCD      0x00000000
                          DCD      0x00000000
                          DCD      BUTTON_CreateIndirect
                          DCD      ||.conststring||+0x7
00005c  080400f3          DCW      0x0804,0x00f3
000060  00e2004d          DCW      0x00e2,0x004d
000064  002d0000          DCW      0x002d,0x0000
                          DCD      0x00000000
                          DCD      0x00000000
                          DCD      BUTTON_CreateIndirect
                          DCD      ||.conststring||+0x7
000078  08050143          DCW      0x0805,0x0143
00007c  00e2004d          DCW      0x00e2,0x004d
000080  002d0000          DCW      0x002d,0x0000
                          DCD      0x00000000
                          DCD      0x00000000
                          DCD      BUTTON_CreateIndirect
                          DCD      ||.conststring||+0x7
000094  08060193          DCW      0x0806,0x0193
000098  00e2004d          DCW      0x00e2,0x004d
00009c  002d0000          DCW      0x002d,0x0000
                          DCD      0x00000000
                          DCD      0x00000000
                          DCD      TEXT_CreateIndirect
                          DCD      ||.conststring||+0xe
0000b0  0807001c          DCW      0x0807,0x001c
0000b4  00320040          DCW      0x0032,0x0040
0000b8  00200000          DCW      0x0020,0x0000
                          DCD      0x00000064
                          DCD      0x00000000
                          DCD      TEXT_CreateIndirect
                          DCD      ||.conststring||+0xe
0000cc  0808001c          DCW      0x0808,0x001c
0000d0  00780040          DCW      0x0078,0x0040
0000d4  00200000          DCW      0x0020,0x0000
                          DCD      0x00000064
                          DCD      0x00000000
                          DCD      TEXT_CreateIndirect
                          DCD      ||.conststring||+0xe
0000e8  082000f0          DCW      0x0820,0x00f0
0000ec  00320020          DCW      0x0032,0x0020
0000f0  001e0000          DCW      0x001e,0x0000
                          DCD      0x00000000
                          DCD      0x00000000
                          DCD      TEXT_CreateIndirect
                          DCD      ||.conststring||+0xe
000104  082100f0          DCW      0x0821,0x00f0
000108  00790020          DCW      0x0079,0x0020
00010c  001e0000          DCW      0x001e,0x0000
                          DCD      0x00000000
                          DCD      0x00000000
                          DCD      TEXT_CreateIndirect
                          DCD      ||.conststring||+0xe
000120  083d0122          DCW      0x083d,0x0122
000124  004b0050          DCW      0x004b,0x0050
000128  00140000          DCW      0x0014,0x0000
                          DCD      0x00000000
                          DCD      0x00000000
                          DCD      TEXT_CreateIndirect
                          DCD      ||.conststring||+0xe
00013c  083e0122          DCW      0x083e,0x0122
000140  00960050          DCW      0x0096,0x0050
000144  00140000          DCW      0x0014,0x0000
                          DCD      0x00000000
                          DCD      0x00000000
                          DCD      TEXT_CreateIndirect
                          DCD      ||.conststring||+0xe
000158  0866017c          DCW      0x0866,0x017c
00015c  004b0035          DCW      0x004b,0x0035
000160  00140000          DCW      0x0014,0x0000
                          DCD      0x00000000
                          DCD      0x00000000
                          DCD      TEXT_CreateIndirect
                          DCD      ||.conststring||+0xe
000174  08670172          DCW      0x0867,0x0172
000178  00960041          DCW      0x0096,0x0041
00017c  00140000          DCW      0x0014,0x0000
                          DCD      0x00000000
                          DCD      0x00000000
                          DCD      TEXT_CreateIndirect
                          DCD      ||.conststring||+0xe
000190  0893005f          DCW      0x0893,0x005f
000194  00300096          DCW      0x0030,0x0096
000198  00280000          DCW      0x0028,0x0000
                          DCD      0x00000000
                          DCD      0x00000000
                          DCD      TEXT_CreateIndirect
                          DCD      ||.conststring||+0xe
0001ac  0894005f          DCW      0x0894,0x005f
0001b0  00740096          DCW      0x0074,0x0096
0001b4  00280000          DCW      0x0028,0x0000
                          DCD      0x00000000
                          DCD      0x00000000
                          DCD      TEXT_CreateIndirect
                          DCD      ||.conststring||+0xe
0001c8  08950190          DCW      0x0895,0x0190
0001cc  00040032          DCW      0x0004,0x0032
0001d0  00140000          DCW      0x0014,0x0000
                          DCD      0x00000000
                          DCD      0x00000000
                          DCD      TEXT_CreateIndirect
                          DCD      ||.conststring||+0xe
0001e4  090b005f          DCW      0x090b,0x005f
0001e8  00b80096          DCW      0x00b8,0x0096
0001ec  00280000          DCW      0x0028,0x0000
                          DCD      0x00000000
                          DCD      0x00000000
                          DCD      TEXT_CreateIndirect
                          DCD      ||.conststring||+0xe
000200  090c012c          DCW      0x090c,0x012c
000204  00020050          DCW      0x0002,0x0050
000208  00140000          DCW      0x0014,0x0000
                          DCD      0x00000000
                          DCD      0x00000000

                          AREA ||.conststring||, DATA, READONLY, MERGE=1, STRINGS, ALIGN=0

000000  57696e64          DCB      "Window",0
000004  6f7700  
000007  42757474          DCB      "Button",0
00000b  6f6e00  
00000e  54657874          DCB      "Text",0
000012  00      

                          AREA ||.data||, DATA, ALIGN=2

                  pow_sw
000000  00                DCB      0x00
                  status_flash
000001  000000            DCB      0x00,0x00,0x00
                  hWinWind
                          DCD      0x00000000

;*** Start embedded assembler ***

#line 1 "..\\APP\\menu.c"
	AREA ||.rev16_text||, CODE, READONLY
	THUMB
	EXPORT |__asm___6_menu_c_pow_sw____REV16|
#line 114 "D:\\Keil\\ARM\\CMSIS\\Include\\core_cmInstr.h"
|__asm___6_menu_c_pow_sw____REV16| PROC
#line 115

 rev16 r0, r0
 bx lr
	ENDP
	AREA ||.revsh_text||, CODE, READONLY
	THUMB
	EXPORT |__asm___6_menu_c_pow_sw____REVSH|
#line 128
|__asm___6_menu_c_pow_sw____REVSH| PROC
#line 129

 revsh r0, r0
 bx lr
	ENDP

;*** End   embedded assembler ***
