; generated by ARM C/C++ Compiler, 4.1 [Build 894]
; commandline ArmCC [--list --split_sections --debug -c --asm --interleave -o..\Output\sysinfo.o --asm_dir=..\Listing\ --list_dir=..\Listing\ --depend=..\Output\sysinfo.d --cpu=Cortex-M4.fp --apcs=interwork -O1 --diag_suppress=870 -I..\APP -I..\drive -I..\Include -I..\Libraries\CMSIS\inc -I..\Libraries\CMSIS\src -I..\Libraries\FWlib\inc -I..\Libraries\FWlib\src -I..\Listing -I..\Output -I..\Project -I..\STemWinLibrary522\Config -I..\STemWinLibrary522\emWinTask -I..\STemWinLibrary522\GUILib -I..\STemWinLibrary522\inc -I..\User -I..\USB\STM32_USB_HOST_Library\Class\HID\inc -I..\USB\STM32_USB_HOST_Library\Class\MSC\src -I..\USB\STM32_USB_HOST_Library\Core\src -I..\USB\USB_APP -I..\USB\STM32_USB_HOST_Library\Class\HID\src -I..\USB\STM32_USB_HOST_Library\Class\MSC\inc -I..\USB\STM32_USB_HOST_Library\Core\inc -I..\USB\STM32_USB_OTG_Driver\inc -I..\FATFS\exfuns -I..\FATFS\src\option -I..\FATFS\src -I..\MALLOC -ID:\Keil\ARM\RV31\Inc -ID:\Keil\ARM\CMSIS\Include -ID:\Keil\ARM\Inc\ST\STM32F4xx -DUSE_STDPERIPH_DRIVER -DSTM32F40XX -DUSE_USB_OTG_FS -DUSE_EMBEDDED_PHY -DUSE_USB_OTG_HS -DSTM32F40XX --omf_browse=..\Output\sysinfo.crf ..\APP\sysinfo.c]
                          THUMB

                          AREA ||i.CFM_PASS||, CODE, READONLY, ALIGN=2

                  CFM_PASS PROC
;;;1361   void CFM_PASS(void);            
;;;1362   void CFM_PASS(void){
000000  b570              PUSH     {r4-r6,lr}
;;;1363       if(admin == 1)
000002  4d13              LDR      r5,|L1.80|
000004  7969              LDRB     r1,[r5,#5]  ; admin
000006  4628              MOV      r0,r5
;;;1364       {
;;;1365           WM_HWIN hItem;
;;;1366           hItem = WM_GetDialogItem(hWinsysinfo, ID_TEXT_99);
;;;1367           TEXT_SetBkColor(hItem,0x00BFFFFF);
000008  4e12              LDR      r6,|L1.84|
00000a  6980              LDR      r0,[r0,#0x18]         ;1366
00000c  f6400299          MOV      r2,#0x899             ;1366
000010  2901              CMP      r1,#1                 ;1363
000012  d00f              BEQ      |L1.52|
;;;1368           TEXT_SetTextColor(hItem, GUI_BLACK);
;;;1369       }else{
;;;1370           WM_HWIN hItem;
;;;1371           hItem = WM_GetDialogItem(hWinsysinfo, ID_TEXT_99);
000014  4611              MOV      r1,r2
000016  f7fffffe          BL       WM_GetDialogItem
00001a  4604              MOV      r4,r0
;;;1372           TEXT_SetBkColor(hItem,GUI_INVALID_COLOR);
00001c  f06f4170          MVN      r1,#0xf0000000
000020  4620              MOV      r0,r4
000022  f7fffffe          BL       TEXT_SetBkColor
;;;1373           TEXT_SetTextColor(hItem, 0x00BFFFFF);
000026  4631              MOV      r1,r6
000028  4620              MOV      r0,r4
00002a  f7fffffe          BL       TEXT_SetTextColor
;;;1374           info_set = set_48;
00002e  202f              MOVS     r0,#0x2f
000030  7028              STRB     r0,[r5,#0]
;;;1375       }
;;;1376   }
000032  bd70              POP      {r4-r6,pc}
                  |L1.52|
000034  4611              MOV      r1,r2                 ;1366
000036  f7fffffe          BL       WM_GetDialogItem
00003a  4604              MOV      r4,r0                 ;1366
00003c  4631              MOV      r1,r6                 ;1367
00003e  4620              MOV      r0,r4                 ;1367
000040  f7fffffe          BL       TEXT_SetBkColor
000044  4620              MOV      r0,r4                 ;1368
000046  e8bd4070          POP      {r4-r6,lr}            ;1368
00004a  2100              MOVS     r1,#0                 ;1368
00004c  f7ffbffe          B.W      TEXT_SetTextColor
                          ENDP

                  |L1.80|
                          DCD      ||.data||
                  |L1.84|
                          DCD      0x00bfffff

                          AREA ||i.Createsysinfo||, CODE, READONLY, ALIGN=2

                  Createsysinfo PROC
;;;321    WM_HWIN Createsysinfo(void);
;;;322    WM_HWIN Createsysinfo(void) {
000000  b51c              PUSH     {r2-r4,lr}
;;;323      hWinsysinfo  = GUI_CreateDialogBox(_aDialogCreate7, GUI_COUNTOF(_aDialogCreate7), _cbDialog, WM_HBKWIN, 0, 0);
000002  f7fffffe          BL       WM_GetDesktopWindow
000006  2400              MOVS     r4,#0
000008  4603              MOV      r3,r0
00000a  9400              STR      r4,[sp,#0]
00000c  4a07              LDR      r2,|L2.44|
00000e  2111              MOVS     r1,#0x11
000010  4807              LDR      r0,|L2.48|
000012  9401              STR      r4,[sp,#4]
000014  f7fffffe          BL       GUI_CreateDialogBox
000018  4906              LDR      r1,|L2.52|
00001a  6188              STR      r0,[r1,#0x18]  ; hWinsysinfo
;;;324      pass = 0;
00001c  4a06              LDR      r2,|L2.56|
00001e  7014              STRB     r4,[r2,#0]
;;;325      page_sw = face_sys_info;
000020  4b06              LDR      r3,|L2.60|
000022  2207              MOVS     r2,#7
000024  701a              STRB     r2,[r3,#0]
;;;326      info_set = set_48;
000026  222f              MOVS     r2,#0x2f
000028  700a              STRB     r2,[r1,#0]
;;;327      return hWinsysinfo;
;;;328    }
00002a  bd1c              POP      {r2-r4,pc}
;;;329    
                          ENDP

                  |L2.44|
                          DCD      _cbDialog
                  |L2.48|
                          DCD      ||.constdata||
                  |L2.52|
                          DCD      ||.data||
                  |L2.56|
                          DCD      pass
                  |L2.60|
                          DCD      page_sw

                          AREA ||i.INPUT_INFO||, CODE, READONLY, ALIGN=2

                          REQUIRE _printf_percent
                          REQUIRE _printf_d
                          REQUIRE _printf_int_dec
                  INPUT_INFO PROC
;;;1207              
;;;1208   void INPUT_INFO(vu8 num){
000000  b570              PUSH     {r4-r6,lr}
000002  4604              MOV      r4,r0
;;;1209       static char buf[5];
;;;1210       WM_HWIN hItem;
;;;1211       switch(info_set)
000004  4eb4              LDR      r6,|L3.728|
000006  7831              LDRB     r1,[r6,#0]  ; info_set
000008  4630              MOV      r0,r6
00000a  392f              SUBS     r1,r1,#0x2f
;;;1212       {
;;;1213           case set_48:
;;;1214           {
;;;1215               hItem = WM_GetDialogItem(hWinsysinfo, ID_TEXT_99);
00000c  6980              LDR      r0,[r0,#0x18]
00000e  2910              CMP      r1,#0x10              ;1211
000010  d27e              BCS      |L3.272|
000012  e8dff001          TBB      [pc,r1]               ;1211
000016  081d              DCB      0x08,0x1d
000018  32475c71          DCB      0x32,0x47,0x5c,0x71
00001c  889db2c7          DCB      0x88,0x9d,0xb2,0xc7
000020  dcf1fefd          DCB      0xdc,0xf1,0xfe,0xfd
000024  fcfb              DCB      0xfc,0xfb
000026  f6400199          MOV      r1,#0x899
00002a  f7fffffe          BL       WM_GetDialogItem
00002e  4605              MOV      r5,r0
;;;1216               sprintf(buf,"%d",num);
000030  48a9              LDR      r0,|L3.728|
000032  4622              MOV      r2,r4
000034  a1a9              ADR      r1,|L3.732|
000036  3021              ADDS     r0,r0,#0x21
000038  f7fffffe          BL       __2sprintf
;;;1217               TEXT_SetText(hItem,buf);
00003c  49a6              LDR      r1,|L3.728|
00003e  4628              MOV      r0,r5
000040  3121              ADDS     r1,r1,#0x21
000042  f7fffffe          BL       TEXT_SetText
;;;1218               year1 = num;
000046  81f4              STRH     r4,[r6,#0xe]
;;;1219               Write_info();
000048  e8bd4070          POP      {r4-r6,lr}
00004c  f7ffbffe          B.W      Write_info
;;;1220               break;
;;;1221           }
;;;1222           case set_49:
;;;1223           {
;;;1224               hItem = WM_GetDialogItem(hWinsysinfo, ID_TEXT_100);
000050  f640019a          MOV      r1,#0x89a
000054  f7fffffe          BL       WM_GetDialogItem
000058  4605              MOV      r5,r0
;;;1225               sprintf(buf,"%d",num);
00005a  489f              LDR      r0,|L3.728|
00005c  4622              MOV      r2,r4
00005e  a19f              ADR      r1,|L3.732|
000060  3021              ADDS     r0,r0,#0x21
000062  f7fffffe          BL       __2sprintf
;;;1226               TEXT_SetText(hItem,buf);
000066  499c              LDR      r1,|L3.728|
000068  4628              MOV      r0,r5
00006a  3121              ADDS     r1,r1,#0x21
00006c  f7fffffe          BL       TEXT_SetText
;;;1227               year2= num;
000070  8234              STRH     r4,[r6,#0x10]
;;;1228               Write_info();
000072  e8bd4070          POP      {r4-r6,lr}
000076  f7ffbffe          B.W      Write_info
;;;1229               break;
;;;1230           }
;;;1231           case set_50:
;;;1232           {
;;;1233               hItem = WM_GetDialogItem(hWinsysinfo, ID_TEXT_101);
00007a  f640019b          MOV      r1,#0x89b
00007e  f7fffffe          BL       WM_GetDialogItem
000082  4605              MOV      r5,r0
;;;1234               sprintf(buf,"%d",num);
000084  4894              LDR      r0,|L3.728|
000086  4622              MOV      r2,r4
000088  a194              ADR      r1,|L3.732|
00008a  3021              ADDS     r0,r0,#0x21
00008c  f7fffffe          BL       __2sprintf
;;;1235               TEXT_SetText(hItem,buf);
000090  4991              LDR      r1,|L3.728|
000092  4628              MOV      r0,r5
000094  3121              ADDS     r1,r1,#0x21
000096  f7fffffe          BL       TEXT_SetText
;;;1236               year3= num;
00009a  8274              STRH     r4,[r6,#0x12]
;;;1237               Write_info();
00009c  e8bd4070          POP      {r4-r6,lr}
0000a0  f7ffbffe          B.W      Write_info
;;;1238               break;
;;;1239           }
;;;1240           case set_51:
;;;1241           {
;;;1242               hItem = WM_GetDialogItem(hWinsysinfo, ID_TEXT_102);
0000a4  f640019c          MOV      r1,#0x89c
0000a8  f7fffffe          BL       WM_GetDialogItem
0000ac  4605              MOV      r5,r0
;;;1243               sprintf(buf,"%d",num);
0000ae  488a              LDR      r0,|L3.728|
0000b0  4622              MOV      r2,r4
0000b2  a18a              ADR      r1,|L3.732|
0000b4  3021              ADDS     r0,r0,#0x21
0000b6  f7fffffe          BL       __2sprintf
;;;1244               TEXT_SetText(hItem,buf);
0000ba  4987              LDR      r1,|L3.728|
0000bc  4628              MOV      r0,r5
0000be  3121              ADDS     r1,r1,#0x21
0000c0  f7fffffe          BL       TEXT_SetText
;;;1245               year4= num;
0000c4  82b4              STRH     r4,[r6,#0x14]
;;;1246               Write_info();
0000c6  e8bd4070          POP      {r4-r6,lr}
0000ca  f7ffbffe          B.W      Write_info
;;;1247               break;
;;;1248           }
;;;1249           case set_52:
;;;1250           {
;;;1251               hItem = WM_GetDialogItem(hWinsysinfo, ID_TEXT_103);
0000ce  f640019d          MOV      r1,#0x89d
0000d2  f7fffffe          BL       WM_GetDialogItem
0000d6  4605              MOV      r5,r0
;;;1252               sprintf(buf,"%d",num);
0000d8  487f              LDR      r0,|L3.728|
0000da  4622              MOV      r2,r4
0000dc  a17f              ADR      r1,|L3.732|
0000de  3021              ADDS     r0,r0,#0x21
0000e0  f7fffffe          BL       __2sprintf
;;;1253               TEXT_SetText(hItem,buf);
0000e4  497c              LDR      r1,|L3.728|
0000e6  4628              MOV      r0,r5
0000e8  3121              ADDS     r1,r1,#0x21
0000ea  f7fffffe          BL       TEXT_SetText
;;;1254               month1 = num;
0000ee  7074              STRB     r4,[r6,#1]
;;;1255               Write_info();
0000f0  e8bd4070          POP      {r4-r6,lr}
0000f4  f7ffbffe          B.W      Write_info
;;;1256               break;
;;;1257           }
;;;1258           case set_53:
;;;1259           {
;;;1260               hItem = WM_GetDialogItem(hWinsysinfo, ID_TEXT_104);
0000f8  f640019e          MOV      r1,#0x89e
0000fc  f7fffffe          BL       WM_GetDialogItem
000100  4605              MOV      r5,r0
;;;1261               sprintf(buf,"%d",num);
000102  4875              LDR      r0,|L3.728|
000104  4622              MOV      r2,r4
000106  a175              ADR      r1,|L3.732|
000108  3021              ADDS     r0,r0,#0x21
00010a  f7fffffe          BL       __2sprintf
;;;1262               TEXT_SetText(hItem,buf);
00010e  e000              B        |L3.274|
                  |L3.272|
000110  e0e0              B        |L3.724|
                  |L3.274|
000112  4971              LDR      r1,|L3.728|
000114  4628              MOV      r0,r5
000116  3121              ADDS     r1,r1,#0x21
000118  f7fffffe          BL       TEXT_SetText
;;;1263               month2 = num;
00011c  70b4              STRB     r4,[r6,#2]
;;;1264               Write_info();
00011e  e8bd4070          POP      {r4-r6,lr}
000122  f7ffbffe          B.W      Write_info
;;;1265               break;
;;;1266           }
;;;1267           case set_54:
;;;1268           {
;;;1269               hItem = WM_GetDialogItem(hWinsysinfo, ID_TEXT_105);
000126  f6401115          MOV      r1,#0x915
00012a  f7fffffe          BL       WM_GetDialogItem
00012e  4605              MOV      r5,r0
;;;1270               sprintf(buf,"%d",num);
000130  4869              LDR      r0,|L3.728|
000132  4622              MOV      r2,r4
000134  a169              ADR      r1,|L3.732|
000136  3021              ADDS     r0,r0,#0x21
000138  f7fffffe          BL       __2sprintf
;;;1271               TEXT_SetText(hItem,buf);
00013c  4966              LDR      r1,|L3.728|
00013e  4628              MOV      r0,r5
000140  3121              ADDS     r1,r1,#0x21
000142  f7fffffe          BL       TEXT_SetText
;;;1272               day1 = num;
000146  70f4              STRB     r4,[r6,#3]
;;;1273               Write_info();
000148  e8bd4070          POP      {r4-r6,lr}
00014c  f7ffbffe          B.W      Write_info
;;;1274               break;
;;;1275           }
;;;1276           case set_55:
;;;1277           {
;;;1278               hItem = WM_GetDialogItem(hWinsysinfo, ID_TEXT_106);
000150  f6401116          MOV      r1,#0x916
000154  f7fffffe          BL       WM_GetDialogItem
000158  4605              MOV      r5,r0
;;;1279               sprintf(buf,"%d",num);
00015a  485f              LDR      r0,|L3.728|
00015c  4622              MOV      r2,r4
00015e  a15f              ADR      r1,|L3.732|
000160  3021              ADDS     r0,r0,#0x21
000162  f7fffffe          BL       __2sprintf
;;;1280               TEXT_SetText(hItem,buf);
000166  495c              LDR      r1,|L3.728|
000168  4628              MOV      r0,r5
00016a  3121              ADDS     r1,r1,#0x21
00016c  f7fffffe          BL       TEXT_SetText
;;;1281               day2 = num;
000170  7134              STRB     r4,[r6,#4]
;;;1282               Write_info();
000172  e8bd4070          POP      {r4-r6,lr}
000176  f7ffbffe          B.W      Write_info
;;;1283               break;
;;;1284           }
;;;1285           case set_56:
;;;1286           {
;;;1287               hItem = WM_GetDialogItem(hWinsysinfo, ID_TEXT_107);
00017a  f6401117          MOV      r1,#0x917
00017e  f7fffffe          BL       WM_GetDialogItem
000182  4605              MOV      r5,r0
;;;1288               sprintf(buf,"%d",num);
000184  4854              LDR      r0,|L3.728|
000186  4622              MOV      r2,r4
000188  a154              ADR      r1,|L3.732|
00018a  3021              ADDS     r0,r0,#0x21
00018c  f7fffffe          BL       __2sprintf
;;;1289               TEXT_SetText(hItem,buf);
000190  4951              LDR      r1,|L3.728|
000192  4628              MOV      r0,r5
000194  3121              ADDS     r1,r1,#0x21
000196  f7fffffe          BL       TEXT_SetText
;;;1290               code3 = num;
00019a  7234              STRB     r4,[r6,#8]
;;;1291               Write_info();
00019c  e8bd4070          POP      {r4-r6,lr}
0001a0  f7ffbffe          B.W      Write_info
;;;1292               break;
;;;1293           }
;;;1294           case set_57:
;;;1295           {
;;;1296               hItem = WM_GetDialogItem(hWinsysinfo, ID_TEXT_108);
0001a4  f6401118          MOV      r1,#0x918
0001a8  f7fffffe          BL       WM_GetDialogItem
0001ac  4605              MOV      r5,r0
;;;1297               sprintf(buf,"%d",num);
0001ae  484a              LDR      r0,|L3.728|
0001b0  4622              MOV      r2,r4
0001b2  a14a              ADR      r1,|L3.732|
0001b4  3021              ADDS     r0,r0,#0x21
0001b6  f7fffffe          BL       __2sprintf
;;;1298               TEXT_SetText(hItem,buf);
0001ba  4947              LDR      r1,|L3.728|
0001bc  4628              MOV      r0,r5
0001be  3121              ADDS     r1,r1,#0x21
0001c0  f7fffffe          BL       TEXT_SetText
;;;1299               code4 = num;
0001c4  7274              STRB     r4,[r6,#9]
;;;1300               Write_info();
0001c6  e8bd4070          POP      {r4-r6,lr}
0001ca  f7ffbffe          B.W      Write_info
;;;1301               break;
;;;1302           }
;;;1303           case set_58:
;;;1304           {
;;;1305               hItem = WM_GetDialogItem(hWinsysinfo, ID_TEXT_109);
0001ce  f6401119          MOV      r1,#0x919
0001d2  f7fffffe          BL       WM_GetDialogItem
0001d6  4605              MOV      r5,r0
;;;1306               sprintf(buf,"%d",num);
0001d8  483f              LDR      r0,|L3.728|
0001da  4622              MOV      r2,r4
0001dc  a13f              ADR      r1,|L3.732|
0001de  3021              ADDS     r0,r0,#0x21
0001e0  f7fffffe          BL       __2sprintf
;;;1307               TEXT_SetText(hItem,buf);
0001e4  493c              LDR      r1,|L3.728|
0001e6  4628              MOV      r0,r5
0001e8  3121              ADDS     r1,r1,#0x21
0001ea  f7fffffe          BL       TEXT_SetText
;;;1308               code5 = num;
0001ee  72b4              STRB     r4,[r6,#0xa]
;;;1309               Write_info();
0001f0  e8bd4070          POP      {r4-r6,lr}
0001f4  f7ffbffe          B.W      Write_info
;;;1310               break;
;;;1311           }
;;;1312           case set_59:
;;;1313           {
;;;1314               hItem = WM_GetDialogItem(hWinsysinfo, ID_TEXT_110);
0001f8  f640111a          MOV      r1,#0x91a
0001fc  f7fffffe          BL       WM_GetDialogItem
000200  4605              MOV      r5,r0
;;;1315               sprintf(buf,"%d",num);
000202  4835              LDR      r0,|L3.728|
000204  4622              MOV      r2,r4
000206  a135              ADR      r1,|L3.732|
000208  3021              ADDS     r0,r0,#0x21
00020a  e003              B        |L3.532|
00020c  e04d              B        |L3.682|
00020e  e037              B        |L3.640|
000210  e021              B        |L3.598|
000212  e00b              B        |L3.556|
                  |L3.532|
000214  f7fffffe          BL       __2sprintf
;;;1316               TEXT_SetText(hItem,buf);
000218  492f              LDR      r1,|L3.728|
00021a  4628              MOV      r0,r5
00021c  3121              ADDS     r1,r1,#0x21
00021e  f7fffffe          BL       TEXT_SetText
;;;1317               code6 = num;
000222  72f4              STRB     r4,[r6,#0xb]
;;;1318               Write_info();
000224  e8bd4070          POP      {r4-r6,lr}
000228  f7ffbffe          B.W      Write_info
                  |L3.556|
;;;1319               break;
;;;1320           }
;;;1321           case set_60:
;;;1322           {
;;;1323               hItem = WM_GetDialogItem(hWinsysinfo, ID_TEXT_111);
00022c  f640111b          MOV      r1,#0x91b
000230  f7fffffe          BL       WM_GetDialogItem
000234  4605              MOV      r5,r0
;;;1324               sprintf(buf,"%d",num);
000236  4828              LDR      r0,|L3.728|
000238  4622              MOV      r2,r4
00023a  a128              ADR      r1,|L3.732|
00023c  3021              ADDS     r0,r0,#0x21
00023e  f7fffffe          BL       __2sprintf
;;;1325               TEXT_SetText(hItem,buf);
000242  4925              LDR      r1,|L3.728|
000244  4628              MOV      r0,r5
000246  3121              ADDS     r1,r1,#0x21
000248  f7fffffe          BL       TEXT_SetText
;;;1326               code7 = num;
00024c  7334              STRB     r4,[r6,#0xc]
;;;1327               Write_info();
00024e  e8bd4070          POP      {r4-r6,lr}
000252  f7ffbffe          B.W      Write_info
                  |L3.598|
;;;1328               break;
;;;1329           }
;;;1330           case set_61:
;;;1331           {
;;;1332               hItem = WM_GetDialogItem(hWinsysinfo, ID_TEXT_112);
000256  f640111c          MOV      r1,#0x91c
00025a  f7fffffe          BL       WM_GetDialogItem
00025e  4605              MOV      r5,r0
;;;1333               sprintf(buf,"%d",num);
000260  481d              LDR      r0,|L3.728|
000262  4622              MOV      r2,r4
000264  a11d              ADR      r1,|L3.732|
000266  3021              ADDS     r0,r0,#0x21
000268  f7fffffe          BL       __2sprintf
;;;1334               TEXT_SetText(hItem,buf);
00026c  491a              LDR      r1,|L3.728|
00026e  4628              MOV      r0,r5
000270  3121              ADDS     r1,r1,#0x21
000272  f7fffffe          BL       TEXT_SetText
;;;1335               code8 = num;
000276  7374              STRB     r4,[r6,#0xd]
;;;1336               Write_info();
000278  e8bd4070          POP      {r4-r6,lr}
00027c  f7ffbffe          B.W      Write_info
                  |L3.640|
;;;1337               break;
;;;1338           }
;;;1339           case set_62:
;;;1340           {
;;;1341               hItem = WM_GetDialogItem(hWinsysinfo, ID_TEXT_113);
000280  f640111d          MOV      r1,#0x91d
000284  f7fffffe          BL       WM_GetDialogItem
000288  4605              MOV      r5,r0
;;;1342               sprintf(buf,"%d",num);
00028a  4813              LDR      r0,|L3.728|
00028c  4622              MOV      r2,r4
00028e  a113              ADR      r1,|L3.732|
000290  3021              ADDS     r0,r0,#0x21
000292  f7fffffe          BL       __2sprintf
;;;1343               TEXT_SetText(hItem,buf);
000296  4910              LDR      r1,|L3.728|
000298  4628              MOV      r0,r5
00029a  3121              ADDS     r1,r1,#0x21
00029c  f7fffffe          BL       TEXT_SetText
;;;1344               code1 = num;
0002a0  71b4              STRB     r4,[r6,#6]
;;;1345               Write_info();
0002a2  e8bd4070          POP      {r4-r6,lr}
0002a6  f7ffbffe          B.W      Write_info
                  |L3.682|
;;;1346               break;
;;;1347           }
;;;1348           case set_63:
;;;1349           {
;;;1350               hItem = WM_GetDialogItem(hWinsysinfo, ID_TEXT_114);
0002aa  f640111e          MOV      r1,#0x91e
0002ae  f7fffffe          BL       WM_GetDialogItem
0002b2  4605              MOV      r5,r0
;;;1351               sprintf(buf,"%d",num);
0002b4  4808              LDR      r0,|L3.728|
0002b6  4622              MOV      r2,r4
0002b8  a108              ADR      r1,|L3.732|
0002ba  3021              ADDS     r0,r0,#0x21
0002bc  f7fffffe          BL       __2sprintf
;;;1352               TEXT_SetText(hItem,buf);
0002c0  4905              LDR      r1,|L3.728|
0002c2  4628              MOV      r0,r5
0002c4  3121              ADDS     r1,r1,#0x21
0002c6  f7fffffe          BL       TEXT_SetText
;;;1353               code2 = num;
0002ca  71f4              STRB     r4,[r6,#7]
;;;1354               Write_info();
0002cc  e8bd4070          POP      {r4-r6,lr}
0002d0  f7ffbffe          B.W      Write_info
                  |L3.724|
;;;1355               break;
;;;1356           }
;;;1357           
;;;1358       }
;;;1359   }
0002d4  bd70              POP      {r4-r6,pc}
;;;1360   
                          ENDP

0002d6  0000              DCW      0x0000
                  |L3.728|
                          DCD      ||.data||
                  |L3.732|
0002dc  256400            DCB      "%d",0
0002df  00                DCB      0

                          AREA ||i.SYS_INFO_DOWN||, CODE, READONLY, ALIGN=2

                  SYS_INFO_DOWN PROC
;;;988    
;;;989    void SYS_INFO_DOWN(void)
000000  e92d5ff0          PUSH     {r4-r12,lr}
;;;990    {
;;;991        WM_HWIN hItem;
;;;992        switch(info_set)
000004  f8dfb404          LDR      r11,|L4.1036|
000008  f89b1000          LDRB     r1,[r11,#0]  ; info_set
00000c  4658              MOV      r0,r11
00000e  392f              SUBS     r1,r1,#0x2f
;;;993        {
;;;994            case set_48:
;;;995            {
;;;996                hItem = WM_GetDialogItem(hWinsysinfo, ID_TEXT_99);
;;;997                TEXT_SetBkColor(hItem,GUI_INVALID_COLOR);
;;;998                TEXT_SetTextColor(hItem, 0x00BFFFFF);
000010  4fff              LDR      r7,|L4.1040|
;;;999                
;;;1000               hItem = WM_GetDialogItem(hWinsysinfo, ID_TEXT_113);
;;;1001               TEXT_SetBkColor(hItem,0x00BFFFFF);
;;;1002               TEXT_SetTextColor(hItem, GUI_BLACK);
;;;1003               
;;;1004               info_set = set_62;
000012  253d              MOVS     r5,#0x3d
;;;1005               break;
;;;1006           }
;;;1007           case set_49:
;;;1008           {
;;;1009               hItem = WM_GetDialogItem(hWinsysinfo, ID_TEXT_100);
;;;1010               TEXT_SetBkColor(hItem,GUI_INVALID_COLOR);
;;;1011               TEXT_SetTextColor(hItem, 0x00BFFFFF);
;;;1012               
;;;1013               hItem = WM_GetDialogItem(hWinsysinfo, ID_TEXT_113);
;;;1014               TEXT_SetBkColor(hItem,0x00BFFFFF);
;;;1015               TEXT_SetTextColor(hItem, GUI_BLACK);
;;;1016               
;;;1017               info_set = set_62;
;;;1018               break;
;;;1019           }
;;;1020           case set_50:
;;;1021           {
;;;1022               hItem = WM_GetDialogItem(hWinsysinfo, ID_TEXT_101);
;;;1023               TEXT_SetBkColor(hItem,GUI_INVALID_COLOR);
;;;1024               TEXT_SetTextColor(hItem, 0x00BFFFFF);
;;;1025               
;;;1026               hItem = WM_GetDialogItem(hWinsysinfo, ID_TEXT_113);
;;;1027               TEXT_SetBkColor(hItem,0x00BFFFFF);
;;;1028               TEXT_SetTextColor(hItem, GUI_BLACK);
;;;1029               
;;;1030               info_set = set_62;
;;;1031               break;
;;;1032           }
;;;1033           case set_51:
;;;1034           {
;;;1035               hItem = WM_GetDialogItem(hWinsysinfo, ID_TEXT_102);
;;;1036               TEXT_SetBkColor(hItem,GUI_INVALID_COLOR);
;;;1037               TEXT_SetTextColor(hItem, 0x00BFFFFF);
;;;1038               
;;;1039               hItem = WM_GetDialogItem(hWinsysinfo, ID_TEXT_113);
;;;1040               TEXT_SetBkColor(hItem,0x00BFFFFF);
;;;1041               TEXT_SetTextColor(hItem, GUI_BLACK);
;;;1042               
;;;1043               info_set = set_62;
;;;1044               break;
;;;1045           }
;;;1046           case set_52:
;;;1047           {
;;;1048               hItem = WM_GetDialogItem(hWinsysinfo, ID_TEXT_103);
;;;1049               TEXT_SetBkColor(hItem,GUI_INVALID_COLOR);
;;;1050               TEXT_SetTextColor(hItem, 0x00BFFFFF);
;;;1051               
;;;1052               hItem = WM_GetDialogItem(hWinsysinfo, ID_TEXT_113);
;;;1053               TEXT_SetBkColor(hItem,0x00BFFFFF);
;;;1054               TEXT_SetTextColor(hItem, GUI_BLACK);
;;;1055               
;;;1056               info_set = set_62;
;;;1057               break;
;;;1058           }
;;;1059           case set_53:
;;;1060           {
;;;1061               hItem = WM_GetDialogItem(hWinsysinfo, ID_TEXT_104);
;;;1062               TEXT_SetBkColor(hItem,GUI_INVALID_COLOR);
;;;1063               TEXT_SetTextColor(hItem, 0x00BFFFFF);
;;;1064               
;;;1065               hItem = WM_GetDialogItem(hWinsysinfo, ID_TEXT_113);
;;;1066               TEXT_SetBkColor(hItem,0x00BFFFFF);
;;;1067               TEXT_SetTextColor(hItem, GUI_BLACK);
;;;1068               
;;;1069               info_set = set_62;
;;;1070               break;
;;;1071           }
;;;1072           case set_54:
;;;1073           {
;;;1074               hItem = WM_GetDialogItem(hWinsysinfo, ID_TEXT_105);
;;;1075               TEXT_SetBkColor(hItem,GUI_INVALID_COLOR);
;;;1076               TEXT_SetTextColor(hItem, 0x00BFFFFF);
;;;1077               
;;;1078               hItem = WM_GetDialogItem(hWinsysinfo, ID_TEXT_113);
;;;1079               TEXT_SetBkColor(hItem,0x00BFFFFF);
;;;1080               TEXT_SetTextColor(hItem, GUI_BLACK);
;;;1081               
;;;1082               info_set = set_62;
;;;1083               break;
;;;1084           }
;;;1085           case set_55:
;;;1086           {
;;;1087               hItem = WM_GetDialogItem(hWinsysinfo, ID_TEXT_106);
;;;1088               TEXT_SetBkColor(hItem,GUI_INVALID_COLOR);
;;;1089               TEXT_SetTextColor(hItem, 0x00BFFFFF);
;;;1090               
;;;1091               hItem = WM_GetDialogItem(hWinsysinfo, ID_TEXT_113);
;;;1092               TEXT_SetBkColor(hItem,0x00BFFFFF);
;;;1093               TEXT_SetTextColor(hItem, GUI_BLACK);
;;;1094               
;;;1095               info_set = set_62;
;;;1096               break;
;;;1097           }
;;;1098           case set_62:
;;;1099           {
;;;1100               hItem = WM_GetDialogItem(hWinsysinfo, ID_TEXT_113);
;;;1101               TEXT_SetBkColor(hItem,GUI_INVALID_COLOR);
;;;1102               TEXT_SetTextColor(hItem, 0x00BFFFFF);
;;;1103               
;;;1104               hItem = WM_GetDialogItem(hWinsysinfo, ID_TEXT_99);
;;;1105               TEXT_SetBkColor(hItem,0x00BFFFFF);
;;;1106               TEXT_SetTextColor(hItem, GUI_BLACK);
;;;1107               
;;;1108               info_set = set_48;
000014  262f              MOVS     r6,#0x2f
000016  6980              LDR      r0,[r0,#0x18]         ;996
000018  f6400a99          MOV      r10,#0x899            ;996
00001c  f06f4870          MVN      r8,#0xf0000000        ;997
000020  f640191d          MOV      r9,#0x91d             ;1000
000024  2910              CMP      r1,#0x10              ;992
000026  d225              BCS      |L4.116|
000028  e8dff001          TBB      [pc,r1]               ;992
00002c  08264462          DCB      0x08,0x26,0x44,0x62
000030  809ebcda          DCB      0x80,0x9e,0xbc,0xda
000034  fdfcfbfa          DCB      0xfd,0xfc,0xfb,0xfa
000038  f9f8f7f6          DCB      0xf9,0xf8,0xf7,0xf6
00003c  4651              MOV      r1,r10                ;996
00003e  f7fffffe          BL       WM_GetDialogItem
000042  4604              MOV      r4,r0                 ;996
000044  4641              MOV      r1,r8                 ;997
000046  4620              MOV      r0,r4                 ;997
000048  f7fffffe          BL       TEXT_SetBkColor
00004c  4639              MOV      r1,r7                 ;998
00004e  4620              MOV      r0,r4                 ;998
000050  f7fffffe          BL       TEXT_SetTextColor
000054  4649              MOV      r1,r9                 ;1000
000056  f8db0018          LDR      r0,[r11,#0x18]        ;1000  ; hWinsysinfo
00005a  f7fffffe          BL       WM_GetDialogItem
00005e  4604              MOV      r4,r0                 ;1000
000060  4639              MOV      r1,r7                 ;1001
000062  4620              MOV      r0,r4                 ;1001
000064  f7fffffe          BL       TEXT_SetBkColor
000068  2100              MOVS     r1,#0                 ;1002
00006a  4620              MOV      r0,r4                 ;1002
00006c  f7fffffe          BL       TEXT_SetTextColor
000070  f88b5000          STRB     r5,[r11,#0]           ;1004
                  |L4.116|
;;;1109               break;
;;;1110           }
;;;1111           case set_63:
;;;1112           {
;;;1113               hItem = WM_GetDialogItem(hWinsysinfo, ID_TEXT_114);
;;;1114               TEXT_SetBkColor(hItem,GUI_INVALID_COLOR);
;;;1115               TEXT_SetTextColor(hItem, 0x00BFFFFF);
;;;1116               
;;;1117               hItem = WM_GetDialogItem(hWinsysinfo, ID_TEXT_99);
;;;1118               TEXT_SetBkColor(hItem,0x00BFFFFF);
;;;1119               TEXT_SetTextColor(hItem, GUI_BLACK);
;;;1120               
;;;1121               info_set = set_48;
;;;1122               break;
;;;1123           }
;;;1124           case set_56:
;;;1125           {
;;;1126               hItem = WM_GetDialogItem(hWinsysinfo, ID_TEXT_107);
;;;1127               TEXT_SetBkColor(hItem,GUI_INVALID_COLOR);
;;;1128               TEXT_SetTextColor(hItem, 0x00BFFFFF);
;;;1129               
;;;1130               hItem = WM_GetDialogItem(hWinsysinfo, ID_TEXT_99);
;;;1131               TEXT_SetBkColor(hItem,0x00BFFFFF);
;;;1132               TEXT_SetTextColor(hItem, GUI_BLACK);
;;;1133               
;;;1134               info_set = set_48;
;;;1135               break;
;;;1136           }
;;;1137           case set_57:
;;;1138           {
;;;1139               hItem = WM_GetDialogItem(hWinsysinfo, ID_TEXT_108);
;;;1140               TEXT_SetBkColor(hItem,GUI_INVALID_COLOR);
;;;1141               TEXT_SetTextColor(hItem, 0x00BFFFFF);
;;;1142               
;;;1143               hItem = WM_GetDialogItem(hWinsysinfo, ID_TEXT_99);
;;;1144               TEXT_SetBkColor(hItem,0x00BFFFFF);
;;;1145               TEXT_SetTextColor(hItem, GUI_BLACK);
;;;1146               
;;;1147               info_set = set_48;
;;;1148               break;
;;;1149           }
;;;1150           case set_58:
;;;1151           {
;;;1152               hItem = WM_GetDialogItem(hWinsysinfo, ID_TEXT_109);
;;;1153               TEXT_SetBkColor(hItem,GUI_INVALID_COLOR);
;;;1154               TEXT_SetTextColor(hItem, 0x00BFFFFF);
;;;1155               
;;;1156               hItem = WM_GetDialogItem(hWinsysinfo, ID_TEXT_99);
;;;1157               TEXT_SetBkColor(hItem,0x00BFFFFF);
;;;1158               TEXT_SetTextColor(hItem, GUI_BLACK);
;;;1159               
;;;1160               info_set = set_48;
;;;1161               break;
;;;1162           }
;;;1163           case set_59:
;;;1164           {
;;;1165               hItem = WM_GetDialogItem(hWinsysinfo, ID_TEXT_110);
;;;1166               TEXT_SetBkColor(hItem,GUI_INVALID_COLOR);
;;;1167               TEXT_SetTextColor(hItem, 0x00BFFFFF);
;;;1168               
;;;1169               hItem = WM_GetDialogItem(hWinsysinfo, ID_TEXT_99);
;;;1170               TEXT_SetBkColor(hItem,0x00BFFFFF);
;;;1171               TEXT_SetTextColor(hItem, GUI_BLACK);
;;;1172               
;;;1173               info_set = set_48;
;;;1174               break;
;;;1175           }
;;;1176           case set_60:
;;;1177           {
;;;1178               hItem = WM_GetDialogItem(hWinsysinfo, ID_TEXT_111);
;;;1179               TEXT_SetBkColor(hItem,GUI_INVALID_COLOR);
;;;1180               TEXT_SetTextColor(hItem, 0x00BFFFFF);
;;;1181               
;;;1182               hItem = WM_GetDialogItem(hWinsysinfo, ID_TEXT_99);
;;;1183               TEXT_SetBkColor(hItem,0x00BFFFFF);
;;;1184               TEXT_SetTextColor(hItem, GUI_BLACK);
;;;1185               
;;;1186               info_set = set_48;
;;;1187               break;
;;;1188           }
;;;1189           case set_61:
;;;1190           {
;;;1191               hItem = WM_GetDialogItem(hWinsysinfo, ID_TEXT_112);
;;;1192               TEXT_SetBkColor(hItem,GUI_INVALID_COLOR);
;;;1193               TEXT_SetTextColor(hItem, 0x00BFFFFF);
;;;1194               
;;;1195               hItem = WM_GetDialogItem(hWinsysinfo, ID_TEXT_99);
;;;1196               TEXT_SetBkColor(hItem,0x00BFFFFF);
;;;1197               TEXT_SetTextColor(hItem, GUI_BLACK);
;;;1198               
;;;1199               info_set = set_48;
;;;1200               break;
;;;1201           }
;;;1202       }
;;;1203       
;;;1204   }
000074  e8bd9ff0          POP      {r4-r12,pc}
000078  f640019a          MOV      r1,#0x89a             ;1009
00007c  f7fffffe          BL       WM_GetDialogItem
000080  4604              MOV      r4,r0                 ;1009
000082  4641              MOV      r1,r8                 ;1010
000084  4620              MOV      r0,r4                 ;1010
000086  f7fffffe          BL       TEXT_SetBkColor
00008a  4639              MOV      r1,r7                 ;1011
00008c  4620              MOV      r0,r4                 ;1011
00008e  f7fffffe          BL       TEXT_SetTextColor
000092  4649              MOV      r1,r9                 ;1013
000094  f8db0018          LDR      r0,[r11,#0x18]        ;1013  ; hWinsysinfo
000098  f7fffffe          BL       WM_GetDialogItem
00009c  4604              MOV      r4,r0                 ;1013
00009e  4639              MOV      r1,r7                 ;1014
0000a0  4620              MOV      r0,r4                 ;1014
0000a2  f7fffffe          BL       TEXT_SetBkColor
0000a6  2100              MOVS     r1,#0                 ;1015
0000a8  4620              MOV      r0,r4                 ;1015
0000aa  f7fffffe          BL       TEXT_SetTextColor
0000ae  f88b5000          STRB     r5,[r11,#0]           ;1017
0000b2  e7df              B        |L4.116|
0000b4  f640019b          MOV      r1,#0x89b             ;1022
0000b8  f7fffffe          BL       WM_GetDialogItem
0000bc  4604              MOV      r4,r0                 ;1022
0000be  4641              MOV      r1,r8                 ;1023
0000c0  4620              MOV      r0,r4                 ;1023
0000c2  f7fffffe          BL       TEXT_SetBkColor
0000c6  4639              MOV      r1,r7                 ;1024
0000c8  4620              MOV      r0,r4                 ;1024
0000ca  f7fffffe          BL       TEXT_SetTextColor
0000ce  4649              MOV      r1,r9                 ;1026
0000d0  f8db0018          LDR      r0,[r11,#0x18]        ;1026  ; hWinsysinfo
0000d4  f7fffffe          BL       WM_GetDialogItem
0000d8  4604              MOV      r4,r0                 ;1026
0000da  4639              MOV      r1,r7                 ;1027
0000dc  4620              MOV      r0,r4                 ;1027
0000de  f7fffffe          BL       TEXT_SetBkColor
0000e2  2100              MOVS     r1,#0                 ;1028
0000e4  4620              MOV      r0,r4                 ;1028
0000e6  f7fffffe          BL       TEXT_SetTextColor
0000ea  f88b5000          STRB     r5,[r11,#0]           ;1030
0000ee  e7c1              B        |L4.116|
0000f0  f640019c          MOV      r1,#0x89c             ;1035
0000f4  f7fffffe          BL       WM_GetDialogItem
0000f8  4604              MOV      r4,r0                 ;1035
0000fa  4641              MOV      r1,r8                 ;1036
0000fc  4620              MOV      r0,r4                 ;1036
0000fe  f7fffffe          BL       TEXT_SetBkColor
000102  4639              MOV      r1,r7                 ;1037
000104  4620              MOV      r0,r4                 ;1037
000106  f7fffffe          BL       TEXT_SetTextColor
00010a  4649              MOV      r1,r9                 ;1039
00010c  f8db0018          LDR      r0,[r11,#0x18]        ;1039  ; hWinsysinfo
000110  f7fffffe          BL       WM_GetDialogItem
000114  4604              MOV      r4,r0                 ;1039
000116  4639              MOV      r1,r7                 ;1040
000118  4620              MOV      r0,r4                 ;1040
00011a  f7fffffe          BL       TEXT_SetBkColor
00011e  2100              MOVS     r1,#0                 ;1041
000120  4620              MOV      r0,r4                 ;1041
000122  f7fffffe          BL       TEXT_SetTextColor
000126  f88b5000          STRB     r5,[r11,#0]           ;1043
00012a  e7a3              B        |L4.116|
00012c  f640019d          MOV      r1,#0x89d             ;1048
000130  f7fffffe          BL       WM_GetDialogItem
000134  4604              MOV      r4,r0                 ;1048
000136  4641              MOV      r1,r8                 ;1049
000138  4620              MOV      r0,r4                 ;1049
00013a  f7fffffe          BL       TEXT_SetBkColor
00013e  4639              MOV      r1,r7                 ;1050
000140  4620              MOV      r0,r4                 ;1050
000142  f7fffffe          BL       TEXT_SetTextColor
000146  4649              MOV      r1,r9                 ;1052
000148  f8db0018          LDR      r0,[r11,#0x18]        ;1052  ; hWinsysinfo
00014c  f7fffffe          BL       WM_GetDialogItem
000150  4604              MOV      r4,r0                 ;1052
000152  4639              MOV      r1,r7                 ;1053
000154  4620              MOV      r0,r4                 ;1053
000156  f7fffffe          BL       TEXT_SetBkColor
00015a  2100              MOVS     r1,#0                 ;1054
00015c  4620              MOV      r0,r4                 ;1054
00015e  f7fffffe          BL       TEXT_SetTextColor
000162  f88b5000          STRB     r5,[r11,#0]           ;1056
000166  e785              B        |L4.116|
000168  f640019e          MOV      r1,#0x89e             ;1061
00016c  f7fffffe          BL       WM_GetDialogItem
000170  4604              MOV      r4,r0                 ;1061
000172  4641              MOV      r1,r8                 ;1062
000174  4620              MOV      r0,r4                 ;1062
000176  f7fffffe          BL       TEXT_SetBkColor
00017a  4639              MOV      r1,r7                 ;1063
00017c  4620              MOV      r0,r4                 ;1063
00017e  f7fffffe          BL       TEXT_SetTextColor
000182  4649              MOV      r1,r9                 ;1065
000184  f8db0018          LDR      r0,[r11,#0x18]        ;1065  ; hWinsysinfo
000188  f7fffffe          BL       WM_GetDialogItem
00018c  4604              MOV      r4,r0                 ;1065
00018e  4639              MOV      r1,r7                 ;1066
000190  4620              MOV      r0,r4                 ;1066
000192  f7fffffe          BL       TEXT_SetBkColor
000196  2100              MOVS     r1,#0                 ;1067
000198  4620              MOV      r0,r4                 ;1067
00019a  f7fffffe          BL       TEXT_SetTextColor
00019e  f88b5000          STRB     r5,[r11,#0]           ;1069
0001a2  e767              B        |L4.116|
0001a4  f6401115          MOV      r1,#0x915             ;1074
0001a8  f7fffffe          BL       WM_GetDialogItem
0001ac  4604              MOV      r4,r0                 ;1074
0001ae  4641              MOV      r1,r8                 ;1075
0001b0  4620              MOV      r0,r4                 ;1075
0001b2  f7fffffe          BL       TEXT_SetBkColor
0001b6  4639              MOV      r1,r7                 ;1076
0001b8  4620              MOV      r0,r4                 ;1076
0001ba  f7fffffe          BL       TEXT_SetTextColor
0001be  4649              MOV      r1,r9                 ;1078
0001c0  f8db0018          LDR      r0,[r11,#0x18]        ;1078  ; hWinsysinfo
0001c4  f7fffffe          BL       WM_GetDialogItem
0001c8  4604              MOV      r4,r0                 ;1078
0001ca  4639              MOV      r1,r7                 ;1079
0001cc  4620              MOV      r0,r4                 ;1079
0001ce  f7fffffe          BL       TEXT_SetBkColor
0001d2  2100              MOVS     r1,#0                 ;1080
0001d4  4620              MOV      r0,r4                 ;1080
0001d6  f7fffffe          BL       TEXT_SetTextColor
0001da  f88b5000          STRB     r5,[r11,#0]           ;1082
0001de  e749              B        |L4.116|
0001e0  f6401116          MOV      r1,#0x916             ;1087
0001e4  f7fffffe          BL       WM_GetDialogItem
0001e8  4604              MOV      r4,r0                 ;1087
0001ea  4641              MOV      r1,r8                 ;1088
0001ec  4620              MOV      r0,r4                 ;1088
0001ee  f7fffffe          BL       TEXT_SetBkColor
0001f2  4639              MOV      r1,r7                 ;1089
0001f4  4620              MOV      r0,r4                 ;1089
0001f6  f7fffffe          BL       TEXT_SetTextColor
0001fa  4649              MOV      r1,r9                 ;1091
0001fc  f8db0018          LDR      r0,[r11,#0x18]        ;1091  ; hWinsysinfo
000200  f7fffffe          BL       WM_GetDialogItem
000204  4604              MOV      r4,r0                 ;1091
000206  4639              MOV      r1,r7                 ;1092
000208  4620              MOV      r0,r4                 ;1092
00020a  f7fffffe          BL       TEXT_SetBkColor
00020e  2100              MOVS     r1,#0                 ;1093
000210  4620              MOV      r0,r4                 ;1093
000212  f7fffffe          BL       TEXT_SetTextColor
000216  e007              B        |L4.552|
000218  e026              B        |L4.616|
00021a  e008              B        |L4.558|
00021c  e0d8              B        |L4.976|
00021e  e0b9              B        |L4.916|
000220  e09a              B        |L4.856|
000222  e07b              B        |L4.796|
000224  e05c              B        |L4.736|
000226  e03d              B        |L4.676|
                  |L4.552|
000228  f88b5000          STRB     r5,[r11,#0]           ;1095
00022c  e722              B        |L4.116|
                  |L4.558|
00022e  4649              MOV      r1,r9                 ;1100
000230  f7fffffe          BL       WM_GetDialogItem
000234  4604              MOV      r4,r0                 ;1100
000236  4641              MOV      r1,r8                 ;1101
000238  4620              MOV      r0,r4                 ;1101
00023a  f7fffffe          BL       TEXT_SetBkColor
00023e  4639              MOV      r1,r7                 ;1102
000240  4620              MOV      r0,r4                 ;1102
000242  f7fffffe          BL       TEXT_SetTextColor
000246  4651              MOV      r1,r10                ;1104
000248  f8db0018          LDR      r0,[r11,#0x18]        ;1104  ; hWinsysinfo
00024c  f7fffffe          BL       WM_GetDialogItem
000250  4604              MOV      r4,r0                 ;1104
000252  4639              MOV      r1,r7                 ;1105
000254  4620              MOV      r0,r4                 ;1105
000256  f7fffffe          BL       TEXT_SetBkColor
00025a  2100              MOVS     r1,#0                 ;1106
00025c  4620              MOV      r0,r4                 ;1106
00025e  f7fffffe          BL       TEXT_SetTextColor
000262  f88b6000          STRB     r6,[r11,#0]           ;1108
000266  e705              B        |L4.116|
                  |L4.616|
000268  f640111e          MOV      r1,#0x91e             ;1113
00026c  f7fffffe          BL       WM_GetDialogItem
000270  4604              MOV      r4,r0                 ;1113
000272  4641              MOV      r1,r8                 ;1114
000274  4620              MOV      r0,r4                 ;1114
000276  f7fffffe          BL       TEXT_SetBkColor
00027a  4639              MOV      r1,r7                 ;1115
00027c  4620              MOV      r0,r4                 ;1115
00027e  f7fffffe          BL       TEXT_SetTextColor
000282  4651              MOV      r1,r10                ;1117
000284  f8db0018          LDR      r0,[r11,#0x18]        ;1117  ; hWinsysinfo
000288  f7fffffe          BL       WM_GetDialogItem
00028c  4604              MOV      r4,r0                 ;1117
00028e  4639              MOV      r1,r7                 ;1118
000290  4620              MOV      r0,r4                 ;1118
000292  f7fffffe          BL       TEXT_SetBkColor
000296  2100              MOVS     r1,#0                 ;1119
000298  4620              MOV      r0,r4                 ;1119
00029a  f7fffffe          BL       TEXT_SetTextColor
00029e  f88b6000          STRB     r6,[r11,#0]           ;1121
0002a2  e6e7              B        |L4.116|
                  |L4.676|
0002a4  f6401117          MOV      r1,#0x917             ;1126
0002a8  f7fffffe          BL       WM_GetDialogItem
0002ac  4604              MOV      r4,r0                 ;1126
0002ae  4641              MOV      r1,r8                 ;1127
0002b0  4620              MOV      r0,r4                 ;1127
0002b2  f7fffffe          BL       TEXT_SetBkColor
0002b6  4639              MOV      r1,r7                 ;1128
0002b8  4620              MOV      r0,r4                 ;1128
0002ba  f7fffffe          BL       TEXT_SetTextColor
0002be  4651              MOV      r1,r10                ;1130
0002c0  f8db0018          LDR      r0,[r11,#0x18]        ;1130  ; hWinsysinfo
0002c4  f7fffffe          BL       WM_GetDialogItem
0002c8  4604              MOV      r4,r0                 ;1130
0002ca  4639              MOV      r1,r7                 ;1131
0002cc  4620              MOV      r0,r4                 ;1131
0002ce  f7fffffe          BL       TEXT_SetBkColor
0002d2  2100              MOVS     r1,#0                 ;1132
0002d4  4620              MOV      r0,r4                 ;1132
0002d6  f7fffffe          BL       TEXT_SetTextColor
0002da  f88b6000          STRB     r6,[r11,#0]           ;1134
0002de  e6c9              B        |L4.116|
                  |L4.736|
0002e0  f6401118          MOV      r1,#0x918             ;1139
0002e4  f7fffffe          BL       WM_GetDialogItem
0002e8  4604              MOV      r4,r0                 ;1139
0002ea  4641              MOV      r1,r8                 ;1140
0002ec  4620              MOV      r0,r4                 ;1140
0002ee  f7fffffe          BL       TEXT_SetBkColor
0002f2  4639              MOV      r1,r7                 ;1141
0002f4  4620              MOV      r0,r4                 ;1141
0002f6  f7fffffe          BL       TEXT_SetTextColor
0002fa  4651              MOV      r1,r10                ;1143
0002fc  f8db0018          LDR      r0,[r11,#0x18]        ;1143  ; hWinsysinfo
000300  f7fffffe          BL       WM_GetDialogItem
000304  4604              MOV      r4,r0                 ;1143
000306  4639              MOV      r1,r7                 ;1144
000308  4620              MOV      r0,r4                 ;1144
00030a  f7fffffe          BL       TEXT_SetBkColor
00030e  2100              MOVS     r1,#0                 ;1145
000310  4620              MOV      r0,r4                 ;1145
000312  f7fffffe          BL       TEXT_SetTextColor
000316  f88b6000          STRB     r6,[r11,#0]           ;1147
00031a  e6ab              B        |L4.116|
                  |L4.796|
00031c  f6401119          MOV      r1,#0x919             ;1152
000320  f7fffffe          BL       WM_GetDialogItem
000324  4604              MOV      r4,r0                 ;1152
000326  4641              MOV      r1,r8                 ;1153
000328  4620              MOV      r0,r4                 ;1153
00032a  f7fffffe          BL       TEXT_SetBkColor
00032e  4639              MOV      r1,r7                 ;1154
000330  4620              MOV      r0,r4                 ;1154
000332  f7fffffe          BL       TEXT_SetTextColor
000336  4651              MOV      r1,r10                ;1156
000338  f8db0018          LDR      r0,[r11,#0x18]        ;1156  ; hWinsysinfo
00033c  f7fffffe          BL       WM_GetDialogItem
000340  4604              MOV      r4,r0                 ;1156
000342  4639              MOV      r1,r7                 ;1157
000344  4620              MOV      r0,r4                 ;1157
000346  f7fffffe          BL       TEXT_SetBkColor
00034a  2100              MOVS     r1,#0                 ;1158
00034c  4620              MOV      r0,r4                 ;1158
00034e  f7fffffe          BL       TEXT_SetTextColor
000352  f88b6000          STRB     r6,[r11,#0]           ;1160
000356  e68d              B        |L4.116|
                  |L4.856|
000358  f640111a          MOV      r1,#0x91a             ;1165
00035c  f7fffffe          BL       WM_GetDialogItem
000360  4604              MOV      r4,r0                 ;1165
000362  4641              MOV      r1,r8                 ;1166
000364  4620              MOV      r0,r4                 ;1166
000366  f7fffffe          BL       TEXT_SetBkColor
00036a  4639              MOV      r1,r7                 ;1167
00036c  4620              MOV      r0,r4                 ;1167
00036e  f7fffffe          BL       TEXT_SetTextColor
000372  4651              MOV      r1,r10                ;1169
000374  f8db0018          LDR      r0,[r11,#0x18]        ;1169  ; hWinsysinfo
000378  f7fffffe          BL       WM_GetDialogItem
00037c  4604              MOV      r4,r0                 ;1169
00037e  4639              MOV      r1,r7                 ;1170
000380  4620              MOV      r0,r4                 ;1170
000382  f7fffffe          BL       TEXT_SetBkColor
000386  2100              MOVS     r1,#0                 ;1171
000388  4620              MOV      r0,r4                 ;1171
00038a  f7fffffe          BL       TEXT_SetTextColor
00038e  f88b6000          STRB     r6,[r11,#0]           ;1173
000392  e66f              B        |L4.116|
                  |L4.916|
000394  f640111b          MOV      r1,#0x91b             ;1178
000398  f7fffffe          BL       WM_GetDialogItem
00039c  4604              MOV      r4,r0                 ;1178
00039e  4641              MOV      r1,r8                 ;1179
0003a0  4620              MOV      r0,r4                 ;1179
0003a2  f7fffffe          BL       TEXT_SetBkColor
0003a6  4639              MOV      r1,r7                 ;1180
0003a8  4620              MOV      r0,r4                 ;1180
0003aa  f7fffffe          BL       TEXT_SetTextColor
0003ae  4651              MOV      r1,r10                ;1182
0003b0  f8db0018          LDR      r0,[r11,#0x18]        ;1182  ; hWinsysinfo
0003b4  f7fffffe          BL       WM_GetDialogItem
0003b8  4604              MOV      r4,r0                 ;1182
0003ba  4639              MOV      r1,r7                 ;1183
0003bc  4620              MOV      r0,r4                 ;1183
0003be  f7fffffe          BL       TEXT_SetBkColor
0003c2  2100              MOVS     r1,#0                 ;1184
0003c4  4620              MOV      r0,r4                 ;1184
0003c6  f7fffffe          BL       TEXT_SetTextColor
0003ca  f88b6000          STRB     r6,[r11,#0]           ;1186
0003ce  e651              B        |L4.116|
                  |L4.976|
0003d0  f640111c          MOV      r1,#0x91c             ;1191
0003d4  f7fffffe          BL       WM_GetDialogItem
0003d8  4604              MOV      r4,r0                 ;1191
0003da  4641              MOV      r1,r8                 ;1192
0003dc  4620              MOV      r0,r4                 ;1192
0003de  f7fffffe          BL       TEXT_SetBkColor
0003e2  4639              MOV      r1,r7                 ;1193
0003e4  4620              MOV      r0,r4                 ;1193
0003e6  f7fffffe          BL       TEXT_SetTextColor
0003ea  4651              MOV      r1,r10                ;1195
0003ec  f8db0018          LDR      r0,[r11,#0x18]        ;1195  ; hWinsysinfo
0003f0  f7fffffe          BL       WM_GetDialogItem
0003f4  4604              MOV      r4,r0                 ;1195
0003f6  4639              MOV      r1,r7                 ;1196
0003f8  4620              MOV      r0,r4                 ;1196
0003fa  f7fffffe          BL       TEXT_SetBkColor
0003fe  2100              MOVS     r1,#0                 ;1197
000400  4620              MOV      r0,r4                 ;1197
000402  f7fffffe          BL       TEXT_SetTextColor
000406  f88b6000          STRB     r6,[r11,#0]           ;1199
00040a  e633              B        |L4.116|
                  |L4.1036|
                          DCD      ||.data||
                  |L4.1040|
                          DCD      0x00bfffff
                          ENDP


                          AREA ||i.SYS_INFO_LEFT||, CODE, READONLY, ALIGN=2

                  SYS_INFO_LEFT PROC
;;;550    
;;;551    void SYS_INFO_LEFT(void)
000000  e92d5ff0          PUSH     {r4-r12,lr}
;;;552    {
;;;553        WM_HWIN hItem;
;;;554        switch(info_set)
000004  48fc              LDR      r0,|L5.1016|
000006  7801              LDRB     r1,[r0,#0]  ; info_set
;;;555        {
;;;556            case set_48:
;;;557            {
;;;558                hItem = WM_GetDialogItem(hWinsysinfo, ID_TEXT_99);
000008  f6400699          MOV      r6,#0x899
00000c  392f              SUBS     r1,r1,#0x2f           ;554
;;;559                TEXT_SetBkColor(hItem,GUI_INVALID_COLOR);
;;;560                TEXT_SetTextColor(hItem, 0x00BFFFFF);
00000e  4dfb              LDR      r5,|L5.1020|
;;;561                
;;;562                hItem = WM_GetDialogItem(hWinsysinfo, ID_TEXT_106);
;;;563                TEXT_SetBkColor(hItem,0x00BFFFFF);
;;;564                TEXT_SetTextColor(hItem, GUI_BLACK);
;;;565                
;;;566                info_set = set_55;
;;;567                break;
;;;568            }
;;;569            case set_49:
;;;570            {
;;;571                hItem = WM_GetDialogItem(hWinsysinfo, ID_TEXT_100);
000010  1c77              ADDS     r7,r6,#1
;;;572                TEXT_SetBkColor(hItem,GUI_INVALID_COLOR);
;;;573                TEXT_SetTextColor(hItem, 0x00BFFFFF);
;;;574                
;;;575                hItem = WM_GetDialogItem(hWinsysinfo, ID_TEXT_99);
;;;576                TEXT_SetBkColor(hItem,0x00BFFFFF);
;;;577                TEXT_SetTextColor(hItem, GUI_BLACK);
;;;578                
;;;579                info_set = set_48;
;;;580                break;
;;;581            }
;;;582            case set_50:
;;;583            {
;;;584                hItem = WM_GetDialogItem(hWinsysinfo, ID_TEXT_101);
;;;585                TEXT_SetBkColor(hItem,GUI_INVALID_COLOR);
;;;586                TEXT_SetTextColor(hItem, 0x00BFFFFF);
;;;587                
;;;588                hItem = WM_GetDialogItem(hWinsysinfo, ID_TEXT_100);
;;;589                TEXT_SetBkColor(hItem,0x00BFFFFF);
;;;590                TEXT_SetTextColor(hItem, GUI_BLACK);
;;;591                
;;;592                info_set = set_49;
;;;593                break;
;;;594            }
;;;595            case set_51:
;;;596            {
;;;597                hItem = WM_GetDialogItem(hWinsysinfo, ID_TEXT_102);
;;;598                TEXT_SetBkColor(hItem,GUI_INVALID_COLOR);
;;;599                TEXT_SetTextColor(hItem, 0x00BFFFFF);
;;;600                
;;;601                hItem = WM_GetDialogItem(hWinsysinfo, ID_TEXT_101);
;;;602                TEXT_SetBkColor(hItem,0x00BFFFFF);
;;;603                TEXT_SetTextColor(hItem, GUI_BLACK);
;;;604                
;;;605                info_set = set_50;
;;;606                break;
;;;607            }
;;;608            case set_52:
;;;609            {
;;;610                hItem = WM_GetDialogItem(hWinsysinfo, ID_TEXT_103);
000012  1d34              ADDS     r4,r6,#4
000014  6980              LDR      r0,[r0,#0x18]         ;558
000016  f640089b          MOV      r8,#0x89b             ;584
00001a  f640099c          MOV      r9,#0x89c             ;597
;;;611                TEXT_SetBkColor(hItem,GUI_INVALID_COLOR);
;;;612                TEXT_SetTextColor(hItem, 0x00BFFFFF);
;;;613                
;;;614                hItem = WM_GetDialogItem(hWinsysinfo, ID_TEXT_102);
;;;615                TEXT_SetBkColor(hItem,0x00BFFFFF);
;;;616                TEXT_SetTextColor(hItem, GUI_BLACK);
;;;617                
;;;618                info_set = set_51;
;;;619                break;
;;;620            }
;;;621            case set_53:
;;;622            {
;;;623                hItem = WM_GetDialogItem(hWinsysinfo, ID_TEXT_104);
00001e  f6400a9e          MOV      r10,#0x89e
;;;624                TEXT_SetBkColor(hItem,GUI_INVALID_COLOR);
;;;625                TEXT_SetTextColor(hItem, 0x00BFFFFF);
;;;626                
;;;627                hItem = WM_GetDialogItem(hWinsysinfo, ID_TEXT_103);
;;;628                TEXT_SetBkColor(hItem,0x00BFFFFF);
;;;629                TEXT_SetTextColor(hItem, GUI_BLACK);
;;;630                
;;;631                info_set = set_52;
;;;632                break;
;;;633            }
;;;634            case set_54:
;;;635            {
;;;636                hItem = WM_GetDialogItem(hWinsysinfo, ID_TEXT_105);
000022  f6401b15          MOV      r11,#0x915
000026  2910              CMP      r1,#0x10              ;554
000028  d227              BCS      |L5.122|
00002a  e8dff001          TBB      [pc,r1]               ;554
00002e  0828              DCB      0x08,0x28
000030  466482a0          DCB      0x46,0x64,0x82,0xa0
000034  bedcfefd          DCB      0xbe,0xdc,0xfe,0xfd
000038  fcfbfaf9          DCB      0xfc,0xfb,0xfa,0xf9
00003c  f8f7              DCB      0xf8,0xf7
00003e  4631              MOV      r1,r6                 ;558
000040  4eed              LDR      r6,|L5.1016|
000042  f7fffffe          BL       WM_GetDialogItem
000046  4604              MOV      r4,r0                 ;558
000048  f06f4170          MVN      r1,#0xf0000000        ;559
00004c  4620              MOV      r0,r4                 ;559
00004e  f7fffffe          BL       TEXT_SetBkColor
000052  4629              MOV      r1,r5                 ;560
000054  4620              MOV      r0,r4                 ;560
000056  f7fffffe          BL       TEXT_SetTextColor
00005a  f6401116          MOV      r1,#0x916             ;562
00005e  69b0              LDR      r0,[r6,#0x18]         ;562  ; hWinsysinfo
000060  f7fffffe          BL       WM_GetDialogItem
000064  4604              MOV      r4,r0                 ;562
000066  4629              MOV      r1,r5                 ;563
000068  4620              MOV      r0,r4                 ;563
00006a  f7fffffe          BL       TEXT_SetBkColor
00006e  2100              MOVS     r1,#0                 ;564
000070  4620              MOV      r0,r4                 ;564
000072  f7fffffe          BL       TEXT_SetTextColor
000076  2036              MOVS     r0,#0x36              ;566
000078  7030              STRB     r0,[r6,#0]            ;566
                  |L5.122|
;;;637                TEXT_SetBkColor(hItem,GUI_INVALID_COLOR);
;;;638                TEXT_SetTextColor(hItem, 0x00BFFFFF);
;;;639                
;;;640                hItem = WM_GetDialogItem(hWinsysinfo, ID_TEXT_104);
;;;641                TEXT_SetBkColor(hItem,0x00BFFFFF);
;;;642                TEXT_SetTextColor(hItem, GUI_BLACK);
;;;643                
;;;644                info_set = set_53;
;;;645                break;
;;;646            }
;;;647            case set_55:
;;;648            {
;;;649                hItem = WM_GetDialogItem(hWinsysinfo, ID_TEXT_106);
;;;650                TEXT_SetBkColor(hItem,GUI_INVALID_COLOR);
;;;651                TEXT_SetTextColor(hItem, 0x00BFFFFF);
;;;652                
;;;653                hItem = WM_GetDialogItem(hWinsysinfo, ID_TEXT_105);
;;;654                TEXT_SetBkColor(hItem,0x00BFFFFF);
;;;655                TEXT_SetTextColor(hItem, GUI_BLACK);
;;;656                
;;;657                info_set = set_54;
;;;658                break;
;;;659            }
;;;660            case set_62:
;;;661            {
;;;662                hItem = WM_GetDialogItem(hWinsysinfo, ID_TEXT_113);
;;;663                TEXT_SetBkColor(hItem,GUI_INVALID_COLOR);
;;;664                TEXT_SetTextColor(hItem, 0x00BFFFFF);
;;;665                
;;;666                hItem = WM_GetDialogItem(hWinsysinfo, ID_TEXT_112);
;;;667                TEXT_SetBkColor(hItem,0x00BFFFFF);
;;;668                TEXT_SetTextColor(hItem, GUI_BLACK);
;;;669                
;;;670                info_set = set_61;
;;;671                break;
;;;672            }
;;;673            case set_63:
;;;674            {
;;;675                hItem = WM_GetDialogItem(hWinsysinfo, ID_TEXT_114);
;;;676                TEXT_SetBkColor(hItem,GUI_INVALID_COLOR);
;;;677                TEXT_SetTextColor(hItem, 0x00BFFFFF);
;;;678                
;;;679                hItem = WM_GetDialogItem(hWinsysinfo, ID_TEXT_113);
;;;680                TEXT_SetBkColor(hItem,0x00BFFFFF);
;;;681                TEXT_SetTextColor(hItem, GUI_BLACK);
;;;682                
;;;683                info_set = set_62;
;;;684                break;
;;;685            }
;;;686            case set_56:
;;;687            {
;;;688                hItem = WM_GetDialogItem(hWinsysinfo, ID_TEXT_107);
;;;689                TEXT_SetBkColor(hItem,GUI_INVALID_COLOR);
;;;690                TEXT_SetTextColor(hItem, 0x00BFFFFF);
;;;691                
;;;692                hItem = WM_GetDialogItem(hWinsysinfo, ID_TEXT_114);
;;;693                TEXT_SetBkColor(hItem,0x00BFFFFF);
;;;694                TEXT_SetTextColor(hItem, GUI_BLACK);
;;;695                
;;;696                info_set = set_63;
;;;697                break;
;;;698            }
;;;699            case set_57:
;;;700            {
;;;701                hItem = WM_GetDialogItem(hWinsysinfo, ID_TEXT_108);
;;;702                TEXT_SetBkColor(hItem,GUI_INVALID_COLOR);
;;;703                TEXT_SetTextColor(hItem, 0x00BFFFFF);
;;;704                
;;;705                hItem = WM_GetDialogItem(hWinsysinfo, ID_TEXT_107);
;;;706                TEXT_SetBkColor(hItem,0x00BFFFFF);
;;;707                TEXT_SetTextColor(hItem, GUI_BLACK);
;;;708                
;;;709                info_set = set_56;
;;;710                break;
;;;711            }
;;;712            case set_58:
;;;713            {
;;;714                hItem = WM_GetDialogItem(hWinsysinfo, ID_TEXT_109);
;;;715                TEXT_SetBkColor(hItem,GUI_INVALID_COLOR);
;;;716                TEXT_SetTextColor(hItem, 0x00BFFFFF);
;;;717                
;;;718                hItem = WM_GetDialogItem(hWinsysinfo, ID_TEXT_108);
;;;719                TEXT_SetBkColor(hItem,0x00BFFFFF);
;;;720                TEXT_SetTextColor(hItem, GUI_BLACK);
;;;721                
;;;722                info_set = set_57;
;;;723                break;
;;;724            }
;;;725            case set_59:
;;;726            {
;;;727                hItem = WM_GetDialogItem(hWinsysinfo, ID_TEXT_110);
;;;728                TEXT_SetBkColor(hItem,GUI_INVALID_COLOR);
;;;729                TEXT_SetTextColor(hItem, 0x00BFFFFF);
;;;730                
;;;731                hItem = WM_GetDialogItem(hWinsysinfo, ID_TEXT_109);
;;;732                TEXT_SetBkColor(hItem,0x00BFFFFF);
;;;733                TEXT_SetTextColor(hItem, GUI_BLACK);
;;;734                
;;;735                info_set = set_58;
;;;736                break;
;;;737            }
;;;738            case set_60:
;;;739            {
;;;740                hItem = WM_GetDialogItem(hWinsysinfo, ID_TEXT_111);
;;;741                TEXT_SetBkColor(hItem,GUI_INVALID_COLOR);
;;;742                TEXT_SetTextColor(hItem, 0x00BFFFFF);
;;;743                
;;;744                hItem = WM_GetDialogItem(hWinsysinfo, ID_TEXT_110);
;;;745                TEXT_SetBkColor(hItem,0x00BFFFFF);
;;;746                TEXT_SetTextColor(hItem, GUI_BLACK);
;;;747                
;;;748                info_set = set_59;
;;;749                break;
;;;750            }
;;;751            case set_61:
;;;752            {
;;;753                hItem = WM_GetDialogItem(hWinsysinfo, ID_TEXT_112);
;;;754                TEXT_SetBkColor(hItem,GUI_INVALID_COLOR);
;;;755                TEXT_SetTextColor(hItem, 0x00BFFFFF);
;;;756                
;;;757                hItem = WM_GetDialogItem(hWinsysinfo, ID_TEXT_111);
;;;758                TEXT_SetBkColor(hItem,0x00BFFFFF);
;;;759                TEXT_SetTextColor(hItem, GUI_BLACK);
;;;760                
;;;761                info_set = set_60;
;;;762                break;
;;;763            }
;;;764        }
;;;765        
;;;766    }
00007a  e8bd9ff0          POP      {r4-r12,pc}
00007e  4639              MOV      r1,r7                 ;571
000080  4fdd              LDR      r7,|L5.1016|
000082  f7fffffe          BL       WM_GetDialogItem
000086  4604              MOV      r4,r0                 ;571
000088  f06f4170          MVN      r1,#0xf0000000        ;572
00008c  4620              MOV      r0,r4                 ;572
00008e  f7fffffe          BL       TEXT_SetBkColor
000092  4629              MOV      r1,r5                 ;573
000094  4620              MOV      r0,r4                 ;573
000096  f7fffffe          BL       TEXT_SetTextColor
00009a  4631              MOV      r1,r6                 ;575
00009c  69b8              LDR      r0,[r7,#0x18]         ;575  ; hWinsysinfo
00009e  f7fffffe          BL       WM_GetDialogItem
0000a2  4604              MOV      r4,r0                 ;575
0000a4  4629              MOV      r1,r5                 ;576
0000a6  4620              MOV      r0,r4                 ;576
0000a8  f7fffffe          BL       TEXT_SetBkColor
0000ac  2100              MOVS     r1,#0                 ;577
0000ae  4620              MOV      r0,r4                 ;577
0000b0  f7fffffe          BL       TEXT_SetTextColor
0000b4  202f              MOVS     r0,#0x2f              ;579
0000b6  7038              STRB     r0,[r7,#0]            ;579
0000b8  e7df              B        |L5.122|
0000ba  4641              MOV      r1,r8                 ;584
0000bc  4ece              LDR      r6,|L5.1016|
0000be  f7fffffe          BL       WM_GetDialogItem
0000c2  4604              MOV      r4,r0                 ;584
0000c4  f06f4170          MVN      r1,#0xf0000000        ;585
0000c8  4620              MOV      r0,r4                 ;585
0000ca  f7fffffe          BL       TEXT_SetBkColor
0000ce  4629              MOV      r1,r5                 ;586
0000d0  4620              MOV      r0,r4                 ;586
0000d2  f7fffffe          BL       TEXT_SetTextColor
0000d6  4639              MOV      r1,r7                 ;588
0000d8  69b0              LDR      r0,[r6,#0x18]         ;588  ; hWinsysinfo
0000da  f7fffffe          BL       WM_GetDialogItem
0000de  4604              MOV      r4,r0                 ;588
0000e0  4629              MOV      r1,r5                 ;589
0000e2  4620              MOV      r0,r4                 ;589
0000e4  f7fffffe          BL       TEXT_SetBkColor
0000e8  2100              MOVS     r1,#0                 ;590
0000ea  4620              MOV      r0,r4                 ;590
0000ec  f7fffffe          BL       TEXT_SetTextColor
0000f0  2030              MOVS     r0,#0x30              ;592
0000f2  7030              STRB     r0,[r6,#0]            ;592
0000f4  e7c1              B        |L5.122|
0000f6  4649              MOV      r1,r9                 ;597
0000f8  4ebf              LDR      r6,|L5.1016|
0000fa  f7fffffe          BL       WM_GetDialogItem
0000fe  4604              MOV      r4,r0                 ;597
000100  f06f4170          MVN      r1,#0xf0000000        ;598
000104  4620              MOV      r0,r4                 ;598
000106  f7fffffe          BL       TEXT_SetBkColor
00010a  4629              MOV      r1,r5                 ;599
00010c  4620              MOV      r0,r4                 ;599
00010e  f7fffffe          BL       TEXT_SetTextColor
000112  4641              MOV      r1,r8                 ;601
000114  69b0              LDR      r0,[r6,#0x18]         ;601  ; hWinsysinfo
000116  f7fffffe          BL       WM_GetDialogItem
00011a  4604              MOV      r4,r0                 ;601
00011c  4629              MOV      r1,r5                 ;602
00011e  4620              MOV      r0,r4                 ;602
000120  f7fffffe          BL       TEXT_SetBkColor
000124  2100              MOVS     r1,#0                 ;603
000126  4620              MOV      r0,r4                 ;603
000128  f7fffffe          BL       TEXT_SetTextColor
00012c  2031              MOVS     r0,#0x31              ;605
00012e  7030              STRB     r0,[r6,#0]            ;605
000130  e7a3              B        |L5.122|
000132  4621              MOV      r1,r4                 ;610
000134  4eb0              LDR      r6,|L5.1016|
000136  f7fffffe          BL       WM_GetDialogItem
00013a  4604              MOV      r4,r0                 ;610
00013c  f06f4170          MVN      r1,#0xf0000000        ;611
000140  4620              MOV      r0,r4                 ;611
000142  f7fffffe          BL       TEXT_SetBkColor
000146  4629              MOV      r1,r5                 ;612
000148  4620              MOV      r0,r4                 ;612
00014a  f7fffffe          BL       TEXT_SetTextColor
00014e  4649              MOV      r1,r9                 ;614
000150  69b0              LDR      r0,[r6,#0x18]         ;614  ; hWinsysinfo
000152  f7fffffe          BL       WM_GetDialogItem
000156  4604              MOV      r4,r0                 ;614
000158  4629              MOV      r1,r5                 ;615
00015a  4620              MOV      r0,r4                 ;615
00015c  f7fffffe          BL       TEXT_SetBkColor
000160  2100              MOVS     r1,#0                 ;616
000162  4620              MOV      r0,r4                 ;616
000164  f7fffffe          BL       TEXT_SetTextColor
000168  2032              MOVS     r0,#0x32              ;618
00016a  7030              STRB     r0,[r6,#0]            ;618
00016c  e785              B        |L5.122|
00016e  4651              MOV      r1,r10                ;623
000170  4fa1              LDR      r7,|L5.1016|
000172  f7fffffe          BL       WM_GetDialogItem
000176  4606              MOV      r6,r0                 ;623
000178  f06f4170          MVN      r1,#0xf0000000        ;624
00017c  4630              MOV      r0,r6                 ;624
00017e  f7fffffe          BL       TEXT_SetBkColor
000182  4629              MOV      r1,r5                 ;625
000184  4630              MOV      r0,r6                 ;625
000186  f7fffffe          BL       TEXT_SetTextColor
00018a  4621              MOV      r1,r4                 ;627
00018c  69b8              LDR      r0,[r7,#0x18]         ;627  ; hWinsysinfo
00018e  f7fffffe          BL       WM_GetDialogItem
000192  4604              MOV      r4,r0                 ;627
000194  4629              MOV      r1,r5                 ;628
000196  4620              MOV      r0,r4                 ;628
000198  f7fffffe          BL       TEXT_SetBkColor
00019c  2100              MOVS     r1,#0                 ;629
00019e  4620              MOV      r0,r4                 ;629
0001a0  f7fffffe          BL       TEXT_SetTextColor
0001a4  2033              MOVS     r0,#0x33              ;631
0001a6  7038              STRB     r0,[r7,#0]            ;631
0001a8  e767              B        |L5.122|
0001aa  4659              MOV      r1,r11                ;636
0001ac  4e92              LDR      r6,|L5.1016|
0001ae  f7fffffe          BL       WM_GetDialogItem
0001b2  4604              MOV      r4,r0                 ;636
0001b4  f06f4170          MVN      r1,#0xf0000000        ;637
0001b8  4620              MOV      r0,r4                 ;637
0001ba  f7fffffe          BL       TEXT_SetBkColor
0001be  4629              MOV      r1,r5                 ;638
0001c0  4620              MOV      r0,r4                 ;638
0001c2  f7fffffe          BL       TEXT_SetTextColor
0001c6  4651              MOV      r1,r10                ;640
0001c8  69b0              LDR      r0,[r6,#0x18]         ;640  ; hWinsysinfo
0001ca  f7fffffe          BL       WM_GetDialogItem
0001ce  4604              MOV      r4,r0                 ;640
0001d0  4629              MOV      r1,r5                 ;641
0001d2  4620              MOV      r0,r4                 ;641
0001d4  f7fffffe          BL       TEXT_SetBkColor
0001d8  2100              MOVS     r1,#0                 ;642
0001da  4620              MOV      r0,r4                 ;642
0001dc  f7fffffe          BL       TEXT_SetTextColor
0001e0  2034              MOVS     r0,#0x34              ;644
0001e2  7030              STRB     r0,[r6,#0]            ;644
0001e4  e749              B        |L5.122|
0001e6  f6401116          MOV      r1,#0x916             ;649
0001ea  4e83              LDR      r6,|L5.1016|
0001ec  f7fffffe          BL       WM_GetDialogItem
0001f0  4604              MOV      r4,r0                 ;649
0001f2  f06f4170          MVN      r1,#0xf0000000        ;650
0001f6  4620              MOV      r0,r4                 ;650
0001f8  f7fffffe          BL       TEXT_SetBkColor
0001fc  4629              MOV      r1,r5                 ;651
0001fe  4620              MOV      r0,r4                 ;651
000200  f7fffffe          BL       TEXT_SetTextColor
000204  4659              MOV      r1,r11                ;653
000206  69b0              LDR      r0,[r6,#0x18]         ;653  ; hWinsysinfo
000208  f7fffffe          BL       WM_GetDialogItem
00020c  4604              MOV      r4,r0                 ;653
00020e  4629              MOV      r1,r5                 ;654
000210  4620              MOV      r0,r4                 ;654
000212  f7fffffe          BL       TEXT_SetBkColor
000216  2100              MOVS     r1,#0                 ;655
000218  4620              MOV      r0,r4                 ;655
00021a  e007              B        |L5.556|
00021c  e02b              B        |L5.630|
00021e  e00a              B        |L5.566|
000220  e0ee              B        |L5.1024|
000222  e0c8              B        |L5.950|
000224  e0a7              B        |L5.886|
000226  e086              B        |L5.822|
000228  e065              B        |L5.758|
00022a  e044              B        |L5.694|
                  |L5.556|
00022c  f7fffffe          BL       TEXT_SetTextColor
000230  2035              MOVS     r0,#0x35              ;657
000232  7030              STRB     r0,[r6,#0]            ;657
000234  e721              B        |L5.122|
                  |L5.566|
000236  f640111d          MOV      r1,#0x91d             ;662
00023a  4e6f              LDR      r6,|L5.1016|
00023c  f7fffffe          BL       WM_GetDialogItem
000240  4604              MOV      r4,r0                 ;662
000242  f06f4170          MVN      r1,#0xf0000000        ;663
000246  4620              MOV      r0,r4                 ;663
000248  f7fffffe          BL       TEXT_SetBkColor
00024c  4629              MOV      r1,r5                 ;664
00024e  4620              MOV      r0,r4                 ;664
000250  f7fffffe          BL       TEXT_SetTextColor
000254  f640111c          MOV      r1,#0x91c             ;666
000258  69b0              LDR      r0,[r6,#0x18]         ;666  ; hWinsysinfo
00025a  f7fffffe          BL       WM_GetDialogItem
00025e  4604              MOV      r4,r0                 ;666
000260  4629              MOV      r1,r5                 ;667
000262  4620              MOV      r0,r4                 ;667
000264  f7fffffe          BL       TEXT_SetBkColor
000268  2100              MOVS     r1,#0                 ;668
00026a  4620              MOV      r0,r4                 ;668
00026c  f7fffffe          BL       TEXT_SetTextColor
000270  203c              MOVS     r0,#0x3c              ;670
000272  7030              STRB     r0,[r6,#0]            ;670
000274  e701              B        |L5.122|
                  |L5.630|
000276  f640111e          MOV      r1,#0x91e             ;675
00027a  4e5f              LDR      r6,|L5.1016|
00027c  f7fffffe          BL       WM_GetDialogItem
000280  4604              MOV      r4,r0                 ;675
000282  f06f4170          MVN      r1,#0xf0000000        ;676
000286  4620              MOV      r0,r4                 ;676
000288  f7fffffe          BL       TEXT_SetBkColor
00028c  4629              MOV      r1,r5                 ;677
00028e  4620              MOV      r0,r4                 ;677
000290  f7fffffe          BL       TEXT_SetTextColor
000294  f640111d          MOV      r1,#0x91d             ;679
000298  69b0              LDR      r0,[r6,#0x18]         ;679  ; hWinsysinfo
00029a  f7fffffe          BL       WM_GetDialogItem
00029e  4604              MOV      r4,r0                 ;679
0002a0  4629              MOV      r1,r5                 ;680
0002a2  4620              MOV      r0,r4                 ;680
0002a4  f7fffffe          BL       TEXT_SetBkColor
0002a8  2100              MOVS     r1,#0                 ;681
0002aa  4620              MOV      r0,r4                 ;681
0002ac  f7fffffe          BL       TEXT_SetTextColor
0002b0  203d              MOVS     r0,#0x3d              ;683
0002b2  7030              STRB     r0,[r6,#0]            ;683
0002b4  e6e1              B        |L5.122|
                  |L5.694|
0002b6  f6401117          MOV      r1,#0x917             ;688
0002ba  4e4f              LDR      r6,|L5.1016|
0002bc  f7fffffe          BL       WM_GetDialogItem
0002c0  4604              MOV      r4,r0                 ;688
0002c2  f06f4170          MVN      r1,#0xf0000000        ;689
0002c6  4620              MOV      r0,r4                 ;689
0002c8  f7fffffe          BL       TEXT_SetBkColor
0002cc  4629              MOV      r1,r5                 ;690
0002ce  4620              MOV      r0,r4                 ;690
0002d0  f7fffffe          BL       TEXT_SetTextColor
0002d4  f640111e          MOV      r1,#0x91e             ;692
0002d8  69b0              LDR      r0,[r6,#0x18]         ;692  ; hWinsysinfo
0002da  f7fffffe          BL       WM_GetDialogItem
0002de  4604              MOV      r4,r0                 ;692
0002e0  4629              MOV      r1,r5                 ;693
0002e2  4620              MOV      r0,r4                 ;693
0002e4  f7fffffe          BL       TEXT_SetBkColor
0002e8  2100              MOVS     r1,#0                 ;694
0002ea  4620              MOV      r0,r4                 ;694
0002ec  f7fffffe          BL       TEXT_SetTextColor
0002f0  203e              MOVS     r0,#0x3e              ;696
0002f2  7030              STRB     r0,[r6,#0]            ;696
0002f4  e6c1              B        |L5.122|
                  |L5.758|
0002f6  f6401118          MOV      r1,#0x918             ;701
0002fa  4e3f              LDR      r6,|L5.1016|
0002fc  f7fffffe          BL       WM_GetDialogItem
000300  4604              MOV      r4,r0                 ;701
000302  f06f4170          MVN      r1,#0xf0000000        ;702
000306  4620              MOV      r0,r4                 ;702
000308  f7fffffe          BL       TEXT_SetBkColor
00030c  4629              MOV      r1,r5                 ;703
00030e  4620              MOV      r0,r4                 ;703
000310  f7fffffe          BL       TEXT_SetTextColor
000314  f6401117          MOV      r1,#0x917             ;705
000318  69b0              LDR      r0,[r6,#0x18]         ;705  ; hWinsysinfo
00031a  f7fffffe          BL       WM_GetDialogItem
00031e  4604              MOV      r4,r0                 ;705
000320  4629              MOV      r1,r5                 ;706
000322  4620              MOV      r0,r4                 ;706
000324  f7fffffe          BL       TEXT_SetBkColor
000328  2100              MOVS     r1,#0                 ;707
00032a  4620              MOV      r0,r4                 ;707
00032c  f7fffffe          BL       TEXT_SetTextColor
000330  2037              MOVS     r0,#0x37              ;709
000332  7030              STRB     r0,[r6,#0]            ;709
000334  e6a1              B        |L5.122|
                  |L5.822|
000336  f6401119          MOV      r1,#0x919             ;714
00033a  4e2f              LDR      r6,|L5.1016|
00033c  f7fffffe          BL       WM_GetDialogItem
000340  4604              MOV      r4,r0                 ;714
000342  f06f4170          MVN      r1,#0xf0000000        ;715
000346  4620              MOV      r0,r4                 ;715
000348  f7fffffe          BL       TEXT_SetBkColor
00034c  4629              MOV      r1,r5                 ;716
00034e  4620              MOV      r0,r4                 ;716
000350  f7fffffe          BL       TEXT_SetTextColor
000354  f6401118          MOV      r1,#0x918             ;718
000358  69b0              LDR      r0,[r6,#0x18]         ;718  ; hWinsysinfo
00035a  f7fffffe          BL       WM_GetDialogItem
00035e  4604              MOV      r4,r0                 ;718
000360  4629              MOV      r1,r5                 ;719
000362  4620              MOV      r0,r4                 ;719
000364  f7fffffe          BL       TEXT_SetBkColor
000368  2100              MOVS     r1,#0                 ;720
00036a  4620              MOV      r0,r4                 ;720
00036c  f7fffffe          BL       TEXT_SetTextColor
000370  2038              MOVS     r0,#0x38              ;722
000372  7030              STRB     r0,[r6,#0]            ;722
000374  e681              B        |L5.122|
                  |L5.886|
000376  f640111a          MOV      r1,#0x91a             ;727
00037a  4e1f              LDR      r6,|L5.1016|
00037c  f7fffffe          BL       WM_GetDialogItem
000380  4604              MOV      r4,r0                 ;727
000382  f06f4170          MVN      r1,#0xf0000000        ;728
000386  4620              MOV      r0,r4                 ;728
000388  f7fffffe          BL       TEXT_SetBkColor
00038c  4629              MOV      r1,r5                 ;729
00038e  4620              MOV      r0,r4                 ;729
000390  f7fffffe          BL       TEXT_SetTextColor
000394  f6401119          MOV      r1,#0x919             ;731
000398  69b0              LDR      r0,[r6,#0x18]         ;731  ; hWinsysinfo
00039a  f7fffffe          BL       WM_GetDialogItem
00039e  4604              MOV      r4,r0                 ;731
0003a0  4629              MOV      r1,r5                 ;732
0003a2  4620              MOV      r0,r4                 ;732
0003a4  f7fffffe          BL       TEXT_SetBkColor
0003a8  2100              MOVS     r1,#0                 ;733
0003aa  4620              MOV      r0,r4                 ;733
0003ac  f7fffffe          BL       TEXT_SetTextColor
0003b0  2039              MOVS     r0,#0x39              ;735
0003b2  7030              STRB     r0,[r6,#0]            ;735
0003b4  e661              B        |L5.122|
                  |L5.950|
0003b6  f640111b          MOV      r1,#0x91b             ;740
0003ba  4e0f              LDR      r6,|L5.1016|
0003bc  f7fffffe          BL       WM_GetDialogItem
0003c0  4604              MOV      r4,r0                 ;740
0003c2  f06f4170          MVN      r1,#0xf0000000        ;741
0003c6  4620              MOV      r0,r4                 ;741
0003c8  f7fffffe          BL       TEXT_SetBkColor
0003cc  4629              MOV      r1,r5                 ;742
0003ce  4620              MOV      r0,r4                 ;742
0003d0  f7fffffe          BL       TEXT_SetTextColor
0003d4  f640111a          MOV      r1,#0x91a             ;744
0003d8  69b0              LDR      r0,[r6,#0x18]         ;744  ; hWinsysinfo
0003da  f7fffffe          BL       WM_GetDialogItem
0003de  4604              MOV      r4,r0                 ;744
0003e0  4629              MOV      r1,r5                 ;745
0003e2  4620              MOV      r0,r4                 ;745
0003e4  f7fffffe          BL       TEXT_SetBkColor
0003e8  2100              MOVS     r1,#0                 ;746
0003ea  4620              MOV      r0,r4                 ;746
0003ec  f7fffffe          BL       TEXT_SetTextColor
0003f0  203a              MOVS     r0,#0x3a              ;748
0003f2  7030              STRB     r0,[r6,#0]            ;748
0003f4  e641              B        |L5.122|
0003f6  0000              DCW      0x0000
                  |L5.1016|
                          DCD      ||.data||
                  |L5.1020|
                          DCD      0x00bfffff
                  |L5.1024|
000400  f640111c          MOV      r1,#0x91c             ;753
000404  4e0e              LDR      r6,|L5.1088|
000406  f7fffffe          BL       WM_GetDialogItem
00040a  4604              MOV      r4,r0                 ;753
00040c  f06f4170          MVN      r1,#0xf0000000        ;754
000410  4620              MOV      r0,r4                 ;754
000412  f7fffffe          BL       TEXT_SetBkColor
000416  4629              MOV      r1,r5                 ;755
000418  4620              MOV      r0,r4                 ;755
00041a  f7fffffe          BL       TEXT_SetTextColor
00041e  f640111b          MOV      r1,#0x91b             ;757
000422  69b0              LDR      r0,[r6,#0x18]         ;757  ; hWinsysinfo
000424  f7fffffe          BL       WM_GetDialogItem
000428  4604              MOV      r4,r0                 ;757
00042a  4629              MOV      r1,r5                 ;758
00042c  4620              MOV      r0,r4                 ;758
00042e  f7fffffe          BL       TEXT_SetBkColor
000432  2100              MOVS     r1,#0                 ;759
000434  4620              MOV      r0,r4                 ;759
000436  f7fffffe          BL       TEXT_SetTextColor
00043a  203b              MOVS     r0,#0x3b              ;761
00043c  7030              STRB     r0,[r6,#0]            ;761
00043e  e61c              B        |L5.122|
;;;767    
                          ENDP

                  |L5.1088|
                          DCD      ||.data||

                          AREA ||i.SYS_INFO_RIGHT||, CODE, READONLY, ALIGN=2

                  SYS_INFO_RIGHT PROC
;;;331    
;;;332    void SYS_INFO_RIGHT(void)
000000  e92d5ff0          PUSH     {r4-r12,lr}
;;;333    {
;;;334        WM_HWIN hItem;
;;;335        switch(info_set)
000004  48f8              LDR      r0,|L6.1000|
000006  7801              LDRB     r1,[r0,#0]  ; info_set
;;;336        {
;;;337            case set_48:
;;;338            {
;;;339                hItem = WM_GetDialogItem(hWinsysinfo, ID_TEXT_99);
;;;340                TEXT_SetBkColor(hItem,GUI_INVALID_COLOR);
;;;341                TEXT_SetTextColor(hItem, 0x00BFFFFF);
000008  4df8              LDR      r5,|L6.1004|
00000a  392f              SUBS     r1,r1,#0x2f           ;335
00000c  6980              LDR      r0,[r0,#0x18]         ;339
00000e  f6400799          MOV      r7,#0x899             ;339
000012  f06f4670          MVN      r6,#0xf0000000        ;340
;;;342                
;;;343                hItem = WM_GetDialogItem(hWinsysinfo, ID_TEXT_100);
000016  f640089a          MOV      r8,#0x89a
;;;344                TEXT_SetBkColor(hItem,0x00BFFFFF);
;;;345                TEXT_SetTextColor(hItem, GUI_BLACK);
;;;346                
;;;347                info_set = set_49;
;;;348                break;
;;;349            }
;;;350            case set_49:
;;;351            {
;;;352                hItem = WM_GetDialogItem(hWinsysinfo, ID_TEXT_100);
;;;353                TEXT_SetBkColor(hItem,GUI_INVALID_COLOR);
;;;354                TEXT_SetTextColor(hItem, 0x00BFFFFF);
;;;355                
;;;356                hItem = WM_GetDialogItem(hWinsysinfo, ID_TEXT_101);
00001a  f640099b          MOV      r9,#0x89b
;;;357                TEXT_SetBkColor(hItem,0x00BFFFFF);
;;;358                TEXT_SetTextColor(hItem, GUI_BLACK);
;;;359                
;;;360                info_set = set_50;
;;;361                break;
;;;362            }
;;;363            case set_50:
;;;364            {
;;;365                hItem = WM_GetDialogItem(hWinsysinfo, ID_TEXT_101);
;;;366                TEXT_SetBkColor(hItem,GUI_INVALID_COLOR);
;;;367                TEXT_SetTextColor(hItem, 0x00BFFFFF);
;;;368                
;;;369                hItem = WM_GetDialogItem(hWinsysinfo, ID_TEXT_102);
00001e  f6400a9c          MOV      r10,#0x89c
;;;370                TEXT_SetBkColor(hItem,0x00BFFFFF);
;;;371                TEXT_SetTextColor(hItem, GUI_BLACK);
;;;372                
;;;373                info_set = set_51;
;;;374                break;
;;;375            }
;;;376            case set_51:
;;;377            {
;;;378                hItem = WM_GetDialogItem(hWinsysinfo, ID_TEXT_102);
;;;379                TEXT_SetBkColor(hItem,GUI_INVALID_COLOR);
;;;380                TEXT_SetTextColor(hItem, 0x00BFFFFF);
;;;381                
;;;382                hItem = WM_GetDialogItem(hWinsysinfo, ID_TEXT_103);
000022  f6400b9d          MOV      r11,#0x89d
;;;383                TEXT_SetBkColor(hItem,0x00BFFFFF);
;;;384                TEXT_SetTextColor(hItem, GUI_BLACK);
;;;385                
;;;386                info_set = set_52;
;;;387                break;
;;;388            }
;;;389            case set_52:
;;;390            {
;;;391                hItem = WM_GetDialogItem(hWinsysinfo, ID_TEXT_103);
;;;392                TEXT_SetBkColor(hItem,GUI_INVALID_COLOR);
;;;393                TEXT_SetTextColor(hItem, 0x00BFFFFF);
;;;394                
;;;395                hItem = WM_GetDialogItem(hWinsysinfo, ID_TEXT_104);
;;;396                TEXT_SetBkColor(hItem,0x00BFFFFF);
;;;397                TEXT_SetTextColor(hItem, GUI_BLACK);
;;;398                
;;;399                info_set = set_53;
;;;400                break;
;;;401            }
;;;402            case set_53:
;;;403            {
;;;404                hItem = WM_GetDialogItem(hWinsysinfo, ID_TEXT_104);
;;;405                TEXT_SetBkColor(hItem,GUI_INVALID_COLOR);
;;;406                TEXT_SetTextColor(hItem, 0x00BFFFFF);
;;;407                
;;;408                hItem = WM_GetDialogItem(hWinsysinfo, ID_TEXT_105);
;;;409                TEXT_SetBkColor(hItem,0x00BFFFFF);
;;;410                TEXT_SetTextColor(hItem, GUI_BLACK);
;;;411                
;;;412                info_set = set_54;
;;;413                break;
;;;414            }
;;;415            case set_54:
;;;416            {
;;;417                hItem = WM_GetDialogItem(hWinsysinfo, ID_TEXT_105);
;;;418                TEXT_SetBkColor(hItem,GUI_INVALID_COLOR);
;;;419                TEXT_SetTextColor(hItem, 0x00BFFFFF);
;;;420                
;;;421                hItem = WM_GetDialogItem(hWinsysinfo, ID_TEXT_106);
;;;422                TEXT_SetBkColor(hItem,0x00BFFFFF);
;;;423                TEXT_SetTextColor(hItem, GUI_BLACK);
;;;424                
;;;425                info_set = set_55;
;;;426                break;
;;;427            }
;;;428            case set_55:
;;;429            {
;;;430                hItem = WM_GetDialogItem(hWinsysinfo, ID_TEXT_106);
;;;431                TEXT_SetBkColor(hItem,GUI_INVALID_COLOR);
;;;432                TEXT_SetTextColor(hItem, 0x00BFFFFF);
;;;433                
;;;434                hItem = WM_GetDialogItem(hWinsysinfo, ID_TEXT_99);
;;;435                TEXT_SetBkColor(hItem,0x00BFFFFF);
;;;436                TEXT_SetTextColor(hItem, GUI_BLACK);
;;;437                
;;;438                info_set = set_48;
;;;439                break;
;;;440            }
;;;441            case set_62:
;;;442            {
;;;443                hItem = WM_GetDialogItem(hWinsysinfo, ID_TEXT_113);
000026  f640141d          MOV      r4,#0x91d
00002a  2910              CMP      r1,#0x10              ;335
00002c  d225              BCS      |L6.122|
00002e  e8dff001          TBB      [pc,r1]               ;335
000032  0826              DCB      0x08,0x26
000034  43607d9b          DCB      0x43,0x60,0x7d,0x9b
000038  bad9fefd          DCB      0xba,0xd9,0xfe,0xfd
00003c  fcfbfaf9          DCB      0xfc,0xfb,0xfa,0xf9
000040  f8f7              DCB      0xf8,0xf7
000042  4639              MOV      r1,r7                 ;339
000044  4fe8              LDR      r7,|L6.1000|
000046  f7fffffe          BL       WM_GetDialogItem
00004a  4604              MOV      r4,r0                 ;339
00004c  4631              MOV      r1,r6                 ;340
00004e  4620              MOV      r0,r4                 ;340
000050  f7fffffe          BL       TEXT_SetBkColor
000054  4629              MOV      r1,r5                 ;341
000056  4620              MOV      r0,r4                 ;341
000058  f7fffffe          BL       TEXT_SetTextColor
00005c  4641              MOV      r1,r8                 ;343
00005e  69b8              LDR      r0,[r7,#0x18]         ;343  ; hWinsysinfo
000060  f7fffffe          BL       WM_GetDialogItem
000064  4604              MOV      r4,r0                 ;343
000066  4629              MOV      r1,r5                 ;344
000068  4620              MOV      r0,r4                 ;344
00006a  f7fffffe          BL       TEXT_SetBkColor
00006e  2100              MOVS     r1,#0                 ;345
000070  4620              MOV      r0,r4                 ;345
000072  f7fffffe          BL       TEXT_SetTextColor
000076  2030              MOVS     r0,#0x30              ;347
000078  7038              STRB     r0,[r7,#0]            ;347
                  |L6.122|
;;;444                TEXT_SetBkColor(hItem,GUI_INVALID_COLOR);
;;;445                TEXT_SetTextColor(hItem, 0x00BFFFFF);
;;;446                
;;;447                hItem = WM_GetDialogItem(hWinsysinfo, ID_TEXT_114);
;;;448                TEXT_SetBkColor(hItem,0x00BFFFFF);
;;;449                TEXT_SetTextColor(hItem, GUI_BLACK);
;;;450                
;;;451                info_set = set_63;
;;;452                break;
;;;453            }
;;;454            case set_63:
;;;455            {
;;;456                hItem = WM_GetDialogItem(hWinsysinfo, ID_TEXT_114);
;;;457                TEXT_SetBkColor(hItem,GUI_INVALID_COLOR);
;;;458                TEXT_SetTextColor(hItem, 0x00BFFFFF);
;;;459                
;;;460                hItem = WM_GetDialogItem(hWinsysinfo, ID_TEXT_107);
;;;461                TEXT_SetBkColor(hItem,0x00BFFFFF);
;;;462                TEXT_SetTextColor(hItem, GUI_BLACK);
;;;463                
;;;464                info_set = set_56;
;;;465                break;
;;;466            }
;;;467            case set_56:
;;;468            {
;;;469                hItem = WM_GetDialogItem(hWinsysinfo, ID_TEXT_107);
;;;470                TEXT_SetBkColor(hItem,GUI_INVALID_COLOR);
;;;471                TEXT_SetTextColor(hItem, 0x00BFFFFF);
;;;472                
;;;473                hItem = WM_GetDialogItem(hWinsysinfo, ID_TEXT_108);
;;;474                TEXT_SetBkColor(hItem,0x00BFFFFF);
;;;475                TEXT_SetTextColor(hItem, GUI_BLACK);
;;;476                
;;;477                info_set = set_57;
;;;478                break;
;;;479            }
;;;480            case set_57:
;;;481            {
;;;482                hItem = WM_GetDialogItem(hWinsysinfo, ID_TEXT_108);
;;;483                TEXT_SetBkColor(hItem,GUI_INVALID_COLOR);
;;;484                TEXT_SetTextColor(hItem, 0x00BFFFFF);
;;;485                
;;;486                hItem = WM_GetDialogItem(hWinsysinfo, ID_TEXT_109);
;;;487                TEXT_SetBkColor(hItem,0x00BFFFFF);
;;;488                TEXT_SetTextColor(hItem, GUI_BLACK);
;;;489                
;;;490                info_set = set_58;
;;;491                break;
;;;492            }
;;;493            case set_58:
;;;494            {
;;;495                hItem = WM_GetDialogItem(hWinsysinfo, ID_TEXT_109);
;;;496                TEXT_SetBkColor(hItem,GUI_INVALID_COLOR);
;;;497                TEXT_SetTextColor(hItem, 0x00BFFFFF);
;;;498                
;;;499                hItem = WM_GetDialogItem(hWinsysinfo, ID_TEXT_110);
;;;500                TEXT_SetBkColor(hItem,0x00BFFFFF);
;;;501                TEXT_SetTextColor(hItem, GUI_BLACK);
;;;502                
;;;503                info_set = set_59;
;;;504                break;
;;;505            }
;;;506            case set_59:
;;;507            {
;;;508                hItem = WM_GetDialogItem(hWinsysinfo, ID_TEXT_110);
;;;509                TEXT_SetBkColor(hItem,GUI_INVALID_COLOR);
;;;510                TEXT_SetTextColor(hItem, 0x00BFFFFF);
;;;511                
;;;512                hItem = WM_GetDialogItem(hWinsysinfo, ID_TEXT_111);
;;;513                TEXT_SetBkColor(hItem,0x00BFFFFF);
;;;514                TEXT_SetTextColor(hItem, GUI_BLACK);
;;;515                
;;;516                info_set = set_60;
;;;517                break;
;;;518            }
;;;519            case set_60:
;;;520            {
;;;521                hItem = WM_GetDialogItem(hWinsysinfo, ID_TEXT_111);
;;;522                TEXT_SetBkColor(hItem,GUI_INVALID_COLOR);
;;;523                TEXT_SetTextColor(hItem, 0x00BFFFFF);
;;;524                
;;;525                hItem = WM_GetDialogItem(hWinsysinfo, ID_TEXT_112);
;;;526                TEXT_SetBkColor(hItem,0x00BFFFFF);
;;;527                TEXT_SetTextColor(hItem, GUI_BLACK);
;;;528                
;;;529                info_set = set_61;
;;;530                break;
;;;531            }
;;;532            case set_61:
;;;533            {
;;;534                hItem = WM_GetDialogItem(hWinsysinfo, ID_TEXT_112);
;;;535                TEXT_SetBkColor(hItem,GUI_INVALID_COLOR);
;;;536                TEXT_SetTextColor(hItem, 0x00BFFFFF);
;;;537                
;;;538                hItem = WM_GetDialogItem(hWinsysinfo, ID_TEXT_113);
;;;539                TEXT_SetBkColor(hItem,0x00BFFFFF);
;;;540                TEXT_SetTextColor(hItem, GUI_BLACK);
;;;541                
;;;542                info_set = set_62;
;;;543                break;
;;;544            }
;;;545        }
;;;546        
;;;547    }
00007a  e8bd9ff0          POP      {r4-r12,pc}
00007e  4641              MOV      r1,r8                 ;352
000080  4fd9              LDR      r7,|L6.1000|
000082  f7fffffe          BL       WM_GetDialogItem
000086  4604              MOV      r4,r0                 ;352
000088  4631              MOV      r1,r6                 ;353
00008a  4620              MOV      r0,r4                 ;353
00008c  f7fffffe          BL       TEXT_SetBkColor
000090  4629              MOV      r1,r5                 ;354
000092  4620              MOV      r0,r4                 ;354
000094  f7fffffe          BL       TEXT_SetTextColor
000098  4649              MOV      r1,r9                 ;356
00009a  69b8              LDR      r0,[r7,#0x18]         ;356  ; hWinsysinfo
00009c  f7fffffe          BL       WM_GetDialogItem
0000a0  4604              MOV      r4,r0                 ;356
0000a2  4629              MOV      r1,r5                 ;357
0000a4  4620              MOV      r0,r4                 ;357
0000a6  f7fffffe          BL       TEXT_SetBkColor
0000aa  2100              MOVS     r1,#0                 ;358
0000ac  4620              MOV      r0,r4                 ;358
0000ae  f7fffffe          BL       TEXT_SetTextColor
0000b2  2031              MOVS     r0,#0x31              ;360
0000b4  7038              STRB     r0,[r7,#0]            ;360
0000b6  e7e0              B        |L6.122|
0000b8  4649              MOV      r1,r9                 ;365
0000ba  4fcb              LDR      r7,|L6.1000|
0000bc  f7fffffe          BL       WM_GetDialogItem
0000c0  4604              MOV      r4,r0                 ;365
0000c2  4631              MOV      r1,r6                 ;366
0000c4  4620              MOV      r0,r4                 ;366
0000c6  f7fffffe          BL       TEXT_SetBkColor
0000ca  4629              MOV      r1,r5                 ;367
0000cc  4620              MOV      r0,r4                 ;367
0000ce  f7fffffe          BL       TEXT_SetTextColor
0000d2  4651              MOV      r1,r10                ;369
0000d4  69b8              LDR      r0,[r7,#0x18]         ;369  ; hWinsysinfo
0000d6  f7fffffe          BL       WM_GetDialogItem
0000da  4604              MOV      r4,r0                 ;369
0000dc  4629              MOV      r1,r5                 ;370
0000de  4620              MOV      r0,r4                 ;370
0000e0  f7fffffe          BL       TEXT_SetBkColor
0000e4  2100              MOVS     r1,#0                 ;371
0000e6  4620              MOV      r0,r4                 ;371
0000e8  f7fffffe          BL       TEXT_SetTextColor
0000ec  2032              MOVS     r0,#0x32              ;373
0000ee  7038              STRB     r0,[r7,#0]            ;373
0000f0  e7c3              B        |L6.122|
0000f2  4651              MOV      r1,r10                ;378
0000f4  4fbc              LDR      r7,|L6.1000|
0000f6  f7fffffe          BL       WM_GetDialogItem
0000fa  4604              MOV      r4,r0                 ;378
0000fc  4631              MOV      r1,r6                 ;379
0000fe  4620              MOV      r0,r4                 ;379
000100  f7fffffe          BL       TEXT_SetBkColor
000104  4629              MOV      r1,r5                 ;380
000106  4620              MOV      r0,r4                 ;380
000108  f7fffffe          BL       TEXT_SetTextColor
00010c  4659              MOV      r1,r11                ;382
00010e  69b8              LDR      r0,[r7,#0x18]         ;382  ; hWinsysinfo
000110  f7fffffe          BL       WM_GetDialogItem
000114  4604              MOV      r4,r0                 ;382
000116  4629              MOV      r1,r5                 ;383
000118  4620              MOV      r0,r4                 ;383
00011a  f7fffffe          BL       TEXT_SetBkColor
00011e  2100              MOVS     r1,#0                 ;384
000120  4620              MOV      r0,r4                 ;384
000122  f7fffffe          BL       TEXT_SetTextColor
000126  2033              MOVS     r0,#0x33              ;386
000128  7038              STRB     r0,[r7,#0]            ;386
00012a  e7a6              B        |L6.122|
00012c  4659              MOV      r1,r11                ;391
00012e  4fae              LDR      r7,|L6.1000|
000130  f7fffffe          BL       WM_GetDialogItem
000134  4604              MOV      r4,r0                 ;391
000136  4631              MOV      r1,r6                 ;392
000138  4620              MOV      r0,r4                 ;392
00013a  f7fffffe          BL       TEXT_SetBkColor
00013e  4629              MOV      r1,r5                 ;393
000140  4620              MOV      r0,r4                 ;393
000142  f7fffffe          BL       TEXT_SetTextColor
000146  f640019e          MOV      r1,#0x89e             ;395
00014a  69b8              LDR      r0,[r7,#0x18]         ;395  ; hWinsysinfo
00014c  f7fffffe          BL       WM_GetDialogItem
000150  4604              MOV      r4,r0                 ;395
000152  4629              MOV      r1,r5                 ;396
000154  4620              MOV      r0,r4                 ;396
000156  f7fffffe          BL       TEXT_SetBkColor
00015a  2100              MOVS     r1,#0                 ;397
00015c  4620              MOV      r0,r4                 ;397
00015e  f7fffffe          BL       TEXT_SetTextColor
000162  2034              MOVS     r0,#0x34              ;399
000164  7038              STRB     r0,[r7,#0]            ;399
000166  e788              B        |L6.122|
000168  f640019e          MOV      r1,#0x89e             ;404
00016c  4f9e              LDR      r7,|L6.1000|
00016e  f7fffffe          BL       WM_GetDialogItem
000172  4604              MOV      r4,r0                 ;404
000174  4631              MOV      r1,r6                 ;405
000176  4620              MOV      r0,r4                 ;405
000178  f7fffffe          BL       TEXT_SetBkColor
00017c  4629              MOV      r1,r5                 ;406
00017e  4620              MOV      r0,r4                 ;406
000180  f7fffffe          BL       TEXT_SetTextColor
000184  f6401115          MOV      r1,#0x915             ;408
000188  69b8              LDR      r0,[r7,#0x18]         ;408  ; hWinsysinfo
00018a  f7fffffe          BL       WM_GetDialogItem
00018e  4604              MOV      r4,r0                 ;408
000190  4629              MOV      r1,r5                 ;409
000192  4620              MOV      r0,r4                 ;409
000194  f7fffffe          BL       TEXT_SetBkColor
000198  2100              MOVS     r1,#0                 ;410
00019a  4620              MOV      r0,r4                 ;410
00019c  f7fffffe          BL       TEXT_SetTextColor
0001a0  2035              MOVS     r0,#0x35              ;412
0001a2  7038              STRB     r0,[r7,#0]            ;412
0001a4  e769              B        |L6.122|
0001a6  f6401115          MOV      r1,#0x915             ;417
0001aa  4f8f              LDR      r7,|L6.1000|
0001ac  f7fffffe          BL       WM_GetDialogItem
0001b0  4604              MOV      r4,r0                 ;417
0001b2  4631              MOV      r1,r6                 ;418
0001b4  4620              MOV      r0,r4                 ;418
0001b6  f7fffffe          BL       TEXT_SetBkColor
0001ba  4629              MOV      r1,r5                 ;419
0001bc  4620              MOV      r0,r4                 ;419
0001be  f7fffffe          BL       TEXT_SetTextColor
0001c2  f6401116          MOV      r1,#0x916             ;421
0001c6  69b8              LDR      r0,[r7,#0x18]         ;421  ; hWinsysinfo
0001c8  f7fffffe          BL       WM_GetDialogItem
0001cc  4604              MOV      r4,r0                 ;421
0001ce  4629              MOV      r1,r5                 ;422
0001d0  4620              MOV      r0,r4                 ;422
0001d2  f7fffffe          BL       TEXT_SetBkColor
0001d6  2100              MOVS     r1,#0                 ;423
0001d8  4620              MOV      r0,r4                 ;423
0001da  f7fffffe          BL       TEXT_SetTextColor
0001de  2036              MOVS     r0,#0x36              ;425
0001e0  7038              STRB     r0,[r7,#0]            ;425
0001e2  e74a              B        |L6.122|
0001e4  f6401116          MOV      r1,#0x916             ;430
0001e8  f8df81fc          LDR      r8,|L6.1000|
0001ec  f7fffffe          BL       WM_GetDialogItem
0001f0  4604              MOV      r4,r0                 ;430
0001f2  4631              MOV      r1,r6                 ;431
0001f4  4620              MOV      r0,r4                 ;431
0001f6  f7fffffe          BL       TEXT_SetBkColor
0001fa  4629              MOV      r1,r5                 ;432
0001fc  4620              MOV      r0,r4                 ;432
0001fe  f7fffffe          BL       TEXT_SetTextColor
000202  4639              MOV      r1,r7                 ;434
000204  f8d80018          LDR      r0,[r8,#0x18]         ;434  ; hWinsysinfo
000208  f7fffffe          BL       WM_GetDialogItem
00020c  4604              MOV      r4,r0                 ;434
00020e  4629              MOV      r1,r5                 ;435
000210  4620              MOV      r0,r4                 ;435
000212  f7fffffe          BL       TEXT_SetBkColor
000216  2100              MOVS     r1,#0                 ;436
000218  4620              MOV      r0,r4                 ;436
00021a  f7fffffe          BL       TEXT_SetTextColor
00021e  e007              B        |L6.560|
000220  e028              B        |L6.628|
000222  e009              B        |L6.568|
000224  e0e4              B        |L6.1008|
000226  e0c0              B        |L6.938|
000228  e0a0              B        |L6.876|
00022a  e080              B        |L6.814|
00022c  e060              B        |L6.752|
00022e  e040              B        |L6.690|
                  |L6.560|
000230  202f              MOVS     r0,#0x2f              ;438
000232  f8880000          STRB     r0,[r8,#0]            ;438
000236  e720              B        |L6.122|
                  |L6.568|
000238  4621              MOV      r1,r4                 ;443
00023a  4f6b              LDR      r7,|L6.1000|
00023c  f7fffffe          BL       WM_GetDialogItem
000240  4604              MOV      r4,r0                 ;443
000242  4631              MOV      r1,r6                 ;444
000244  4620              MOV      r0,r4                 ;444
000246  f7fffffe          BL       TEXT_SetBkColor
00024a  4629              MOV      r1,r5                 ;445
00024c  4620              MOV      r0,r4                 ;445
00024e  f7fffffe          BL       TEXT_SetTextColor
000252  f640111e          MOV      r1,#0x91e             ;447
000256  69b8              LDR      r0,[r7,#0x18]         ;447  ; hWinsysinfo
000258  f7fffffe          BL       WM_GetDialogItem
00025c  4604              MOV      r4,r0                 ;447
00025e  4629              MOV      r1,r5                 ;448
000260  4620              MOV      r0,r4                 ;448
000262  f7fffffe          BL       TEXT_SetBkColor
000266  2100              MOVS     r1,#0                 ;449
000268  4620              MOV      r0,r4                 ;449
00026a  f7fffffe          BL       TEXT_SetTextColor
00026e  203e              MOVS     r0,#0x3e              ;451
000270  7038              STRB     r0,[r7,#0]            ;451
000272  e702              B        |L6.122|
                  |L6.628|
000274  f640111e          MOV      r1,#0x91e             ;456
000278  4f5b              LDR      r7,|L6.1000|
00027a  f7fffffe          BL       WM_GetDialogItem
00027e  4604              MOV      r4,r0                 ;456
000280  4631              MOV      r1,r6                 ;457
000282  4620              MOV      r0,r4                 ;457
000284  f7fffffe          BL       TEXT_SetBkColor
000288  4629              MOV      r1,r5                 ;458
00028a  4620              MOV      r0,r4                 ;458
00028c  f7fffffe          BL       TEXT_SetTextColor
000290  f6401117          MOV      r1,#0x917             ;460
000294  69b8              LDR      r0,[r7,#0x18]         ;460  ; hWinsysinfo
000296  f7fffffe          BL       WM_GetDialogItem
00029a  4604              MOV      r4,r0                 ;460
00029c  4629              MOV      r1,r5                 ;461
00029e  4620              MOV      r0,r4                 ;461
0002a0  f7fffffe          BL       TEXT_SetBkColor
0002a4  2100              MOVS     r1,#0                 ;462
0002a6  4620              MOV      r0,r4                 ;462
0002a8  f7fffffe          BL       TEXT_SetTextColor
0002ac  2037              MOVS     r0,#0x37              ;464
0002ae  7038              STRB     r0,[r7,#0]            ;464
0002b0  e6e3              B        |L6.122|
                  |L6.690|
0002b2  f6401117          MOV      r1,#0x917             ;469
0002b6  4f4c              LDR      r7,|L6.1000|
0002b8  f7fffffe          BL       WM_GetDialogItem
0002bc  4604              MOV      r4,r0                 ;469
0002be  4631              MOV      r1,r6                 ;470
0002c0  4620              MOV      r0,r4                 ;470
0002c2  f7fffffe          BL       TEXT_SetBkColor
0002c6  4629              MOV      r1,r5                 ;471
0002c8  4620              MOV      r0,r4                 ;471
0002ca  f7fffffe          BL       TEXT_SetTextColor
0002ce  f6401118          MOV      r1,#0x918             ;473
0002d2  69b8              LDR      r0,[r7,#0x18]         ;473  ; hWinsysinfo
0002d4  f7fffffe          BL       WM_GetDialogItem
0002d8  4604              MOV      r4,r0                 ;473
0002da  4629              MOV      r1,r5                 ;474
0002dc  4620              MOV      r0,r4                 ;474
0002de  f7fffffe          BL       TEXT_SetBkColor
0002e2  2100              MOVS     r1,#0                 ;475
0002e4  4620              MOV      r0,r4                 ;475
0002e6  f7fffffe          BL       TEXT_SetTextColor
0002ea  2038              MOVS     r0,#0x38              ;477
0002ec  7038              STRB     r0,[r7,#0]            ;477
0002ee  e6c4              B        |L6.122|
                  |L6.752|
0002f0  f6401118          MOV      r1,#0x918             ;482
0002f4  4f3c              LDR      r7,|L6.1000|
0002f6  f7fffffe          BL       WM_GetDialogItem
0002fa  4604              MOV      r4,r0                 ;482
0002fc  4631              MOV      r1,r6                 ;483
0002fe  4620              MOV      r0,r4                 ;483
000300  f7fffffe          BL       TEXT_SetBkColor
000304  4629              MOV      r1,r5                 ;484
000306  4620              MOV      r0,r4                 ;484
000308  f7fffffe          BL       TEXT_SetTextColor
00030c  f6401119          MOV      r1,#0x919             ;486
000310  69b8              LDR      r0,[r7,#0x18]         ;486  ; hWinsysinfo
000312  f7fffffe          BL       WM_GetDialogItem
000316  4604              MOV      r4,r0                 ;486
000318  4629              MOV      r1,r5                 ;487
00031a  4620              MOV      r0,r4                 ;487
00031c  f7fffffe          BL       TEXT_SetBkColor
000320  2100              MOVS     r1,#0                 ;488
000322  4620              MOV      r0,r4                 ;488
000324  f7fffffe          BL       TEXT_SetTextColor
000328  2039              MOVS     r0,#0x39              ;490
00032a  7038              STRB     r0,[r7,#0]            ;490
00032c  e6a5              B        |L6.122|
                  |L6.814|
00032e  f6401119          MOV      r1,#0x919             ;495
000332  4f2d              LDR      r7,|L6.1000|
000334  f7fffffe          BL       WM_GetDialogItem
000338  4604              MOV      r4,r0                 ;495
00033a  4631              MOV      r1,r6                 ;496
00033c  4620              MOV      r0,r4                 ;496
00033e  f7fffffe          BL       TEXT_SetBkColor
000342  4629              MOV      r1,r5                 ;497
000344  4620              MOV      r0,r4                 ;497
000346  f7fffffe          BL       TEXT_SetTextColor
00034a  f640111a          MOV      r1,#0x91a             ;499
00034e  69b8              LDR      r0,[r7,#0x18]         ;499  ; hWinsysinfo
000350  f7fffffe          BL       WM_GetDialogItem
000354  4604              MOV      r4,r0                 ;499
000356  4629              MOV      r1,r5                 ;500
000358  4620              MOV      r0,r4                 ;500
00035a  f7fffffe          BL       TEXT_SetBkColor
00035e  2100              MOVS     r1,#0                 ;501
000360  4620              MOV      r0,r4                 ;501
000362  f7fffffe          BL       TEXT_SetTextColor
000366  203a              MOVS     r0,#0x3a              ;503
000368  7038              STRB     r0,[r7,#0]            ;503
00036a  e686              B        |L6.122|
                  |L6.876|
00036c  f640111a          MOV      r1,#0x91a             ;508
000370  4f1d              LDR      r7,|L6.1000|
000372  f7fffffe          BL       WM_GetDialogItem
000376  4604              MOV      r4,r0                 ;508
000378  4631              MOV      r1,r6                 ;509
00037a  4620              MOV      r0,r4                 ;509
00037c  f7fffffe          BL       TEXT_SetBkColor
000380  4629              MOV      r1,r5                 ;510
000382  4620              MOV      r0,r4                 ;510
000384  f7fffffe          BL       TEXT_SetTextColor
000388  f640111b          MOV      r1,#0x91b             ;512
00038c  69b8              LDR      r0,[r7,#0x18]         ;512  ; hWinsysinfo
00038e  f7fffffe          BL       WM_GetDialogItem
000392  4604              MOV      r4,r0                 ;512
000394  4629              MOV      r1,r5                 ;513
000396  4620              MOV      r0,r4                 ;513
000398  f7fffffe          BL       TEXT_SetBkColor
00039c  2100              MOVS     r1,#0                 ;514
00039e  4620              MOV      r0,r4                 ;514
0003a0  f7fffffe          BL       TEXT_SetTextColor
0003a4  203b              MOVS     r0,#0x3b              ;516
0003a6  7038              STRB     r0,[r7,#0]            ;516
0003a8  e667              B        |L6.122|
                  |L6.938|
0003aa  f640111b          MOV      r1,#0x91b             ;521
0003ae  4f0e              LDR      r7,|L6.1000|
0003b0  f7fffffe          BL       WM_GetDialogItem
0003b4  4604              MOV      r4,r0                 ;521
0003b6  4631              MOV      r1,r6                 ;522
0003b8  4620              MOV      r0,r4                 ;522
0003ba  f7fffffe          BL       TEXT_SetBkColor
0003be  4629              MOV      r1,r5                 ;523
0003c0  4620              MOV      r0,r4                 ;523
0003c2  f7fffffe          BL       TEXT_SetTextColor
0003c6  f640111c          MOV      r1,#0x91c             ;525
0003ca  69b8              LDR      r0,[r7,#0x18]         ;525  ; hWinsysinfo
0003cc  f7fffffe          BL       WM_GetDialogItem
0003d0  4604              MOV      r4,r0                 ;525
0003d2  4629              MOV      r1,r5                 ;526
0003d4  4620              MOV      r0,r4                 ;526
0003d6  f7fffffe          BL       TEXT_SetBkColor
0003da  2100              MOVS     r1,#0                 ;527
0003dc  4620              MOV      r0,r4                 ;527
0003de  f7fffffe          BL       TEXT_SetTextColor
0003e2  203c              MOVS     r0,#0x3c              ;529
0003e4  7038              STRB     r0,[r7,#0]            ;529
0003e6  e648              B        |L6.122|
                  |L6.1000|
                          DCD      ||.data||
                  |L6.1004|
                          DCD      0x00bfffff
                  |L6.1008|
0003f0  f640111c          MOV      r1,#0x91c             ;534
0003f4  f8df803c          LDR      r8,|L6.1076|
0003f8  f7fffffe          BL       WM_GetDialogItem
0003fc  4607              MOV      r7,r0                 ;534
0003fe  4631              MOV      r1,r6                 ;535
000400  4638              MOV      r0,r7                 ;535
000402  f7fffffe          BL       TEXT_SetBkColor
000406  4629              MOV      r1,r5                 ;536
000408  4638              MOV      r0,r7                 ;536
00040a  f7fffffe          BL       TEXT_SetTextColor
00040e  4621              MOV      r1,r4                 ;538
000410  f8d80018          LDR      r0,[r8,#0x18]         ;538  ; hWinsysinfo
000414  f7fffffe          BL       WM_GetDialogItem
000418  4604              MOV      r4,r0                 ;538
00041a  4629              MOV      r1,r5                 ;539
00041c  4620              MOV      r0,r4                 ;539
00041e  f7fffffe          BL       TEXT_SetBkColor
000422  2100              MOVS     r1,#0                 ;540
000424  4620              MOV      r0,r4                 ;540
000426  f7fffffe          BL       TEXT_SetTextColor
00042a  203d              MOVS     r0,#0x3d              ;542
00042c  f8880000          STRB     r0,[r8,#0]            ;542
000430  e623              B        |L6.122|
;;;548    
                          ENDP

000432  0000              DCW      0x0000
                  |L6.1076|
                          DCD      ||.data||

                          AREA ||i.SYS_INFO_UP||, CODE, READONLY, ALIGN=2

                  SYS_INFO_UP PROC
;;;769    
;;;770    void SYS_INFO_UP(void)
000000  e92d5ff0          PUSH     {r4-r12,lr}
;;;771    {
;;;772        WM_HWIN hItem;
;;;773        switch(info_set)
000004  f8dfb404          LDR      r11,|L7.1036|
000008  f89b1000          LDRB     r1,[r11,#0]  ; info_set
00000c  4658              MOV      r0,r11
00000e  392f              SUBS     r1,r1,#0x2f
;;;774        {
;;;775            case set_48:
;;;776            {
;;;777                hItem = WM_GetDialogItem(hWinsysinfo, ID_TEXT_99);
;;;778                TEXT_SetBkColor(hItem,GUI_INVALID_COLOR);
;;;779                TEXT_SetTextColor(hItem, 0x00BFFFFF);
000010  4fff              LDR      r7,|L7.1040|
;;;780                
;;;781                hItem = WM_GetDialogItem(hWinsysinfo, ID_TEXT_113);
;;;782                TEXT_SetBkColor(hItem,0x00BFFFFF);
;;;783                TEXT_SetTextColor(hItem, GUI_BLACK);
;;;784                
;;;785                info_set = set_62;
000012  253d              MOVS     r5,#0x3d
;;;786                break;
;;;787            }
;;;788            case set_49:
;;;789            {
;;;790                hItem = WM_GetDialogItem(hWinsysinfo, ID_TEXT_100);
;;;791                TEXT_SetBkColor(hItem,GUI_INVALID_COLOR);
;;;792                TEXT_SetTextColor(hItem, 0x00BFFFFF);
;;;793                
;;;794                hItem = WM_GetDialogItem(hWinsysinfo, ID_TEXT_113);
;;;795                TEXT_SetBkColor(hItem,0x00BFFFFF);
;;;796                TEXT_SetTextColor(hItem, GUI_BLACK);
;;;797                
;;;798                info_set = set_62;
;;;799                break;
;;;800            }
;;;801            case set_50:
;;;802            {
;;;803                hItem = WM_GetDialogItem(hWinsysinfo, ID_TEXT_101);
;;;804                TEXT_SetBkColor(hItem,GUI_INVALID_COLOR);
;;;805                TEXT_SetTextColor(hItem, 0x00BFFFFF);
;;;806                
;;;807                hItem = WM_GetDialogItem(hWinsysinfo, ID_TEXT_113);
;;;808                TEXT_SetBkColor(hItem,0x00BFFFFF);
;;;809                TEXT_SetTextColor(hItem, GUI_BLACK);
;;;810                
;;;811                info_set = set_62;
;;;812                break;
;;;813            }
;;;814            case set_51:
;;;815            {
;;;816                hItem = WM_GetDialogItem(hWinsysinfo, ID_TEXT_102);
;;;817                TEXT_SetBkColor(hItem,GUI_INVALID_COLOR);
;;;818                TEXT_SetTextColor(hItem, 0x00BFFFFF);
;;;819                
;;;820                hItem = WM_GetDialogItem(hWinsysinfo, ID_TEXT_113);
;;;821                TEXT_SetBkColor(hItem,0x00BFFFFF);
;;;822                TEXT_SetTextColor(hItem, GUI_BLACK);
;;;823                
;;;824                info_set = set_62;
;;;825                break;
;;;826            }
;;;827            case set_52:
;;;828            {
;;;829                hItem = WM_GetDialogItem(hWinsysinfo, ID_TEXT_103);
;;;830                TEXT_SetBkColor(hItem,GUI_INVALID_COLOR);
;;;831                TEXT_SetTextColor(hItem, 0x00BFFFFF);
;;;832                
;;;833                hItem = WM_GetDialogItem(hWinsysinfo, ID_TEXT_113);
;;;834                TEXT_SetBkColor(hItem,0x00BFFFFF);
;;;835                TEXT_SetTextColor(hItem, GUI_BLACK);
;;;836                
;;;837                info_set = set_62;
;;;838                break;
;;;839            }
;;;840            case set_53:
;;;841            {
;;;842                hItem = WM_GetDialogItem(hWinsysinfo, ID_TEXT_104);
;;;843                TEXT_SetBkColor(hItem,GUI_INVALID_COLOR);
;;;844                TEXT_SetTextColor(hItem, 0x00BFFFFF);
;;;845                
;;;846                hItem = WM_GetDialogItem(hWinsysinfo, ID_TEXT_113);
;;;847                TEXT_SetBkColor(hItem,0x00BFFFFF);
;;;848                TEXT_SetTextColor(hItem, GUI_BLACK);
;;;849                
;;;850                info_set = set_62;
;;;851                break;
;;;852            }
;;;853            case set_54:
;;;854            {
;;;855                hItem = WM_GetDialogItem(hWinsysinfo, ID_TEXT_105);
;;;856                TEXT_SetBkColor(hItem,GUI_INVALID_COLOR);
;;;857                TEXT_SetTextColor(hItem, 0x00BFFFFF);
;;;858                
;;;859                hItem = WM_GetDialogItem(hWinsysinfo, ID_TEXT_113);
;;;860                TEXT_SetBkColor(hItem,0x00BFFFFF);
;;;861                TEXT_SetTextColor(hItem, GUI_BLACK);
;;;862                
;;;863                info_set = set_62;
;;;864                break;
;;;865            }
;;;866            case set_55:
;;;867            {
;;;868                hItem = WM_GetDialogItem(hWinsysinfo, ID_TEXT_106);
;;;869                TEXT_SetBkColor(hItem,GUI_INVALID_COLOR);
;;;870                TEXT_SetTextColor(hItem, 0x00BFFFFF);
;;;871                
;;;872                hItem = WM_GetDialogItem(hWinsysinfo, ID_TEXT_113);
;;;873                TEXT_SetBkColor(hItem,0x00BFFFFF);
;;;874                TEXT_SetTextColor(hItem, GUI_BLACK);
;;;875                
;;;876                info_set = set_62;
;;;877                break;
;;;878            }
;;;879            case set_56:
;;;880            {
;;;881                hItem = WM_GetDialogItem(hWinsysinfo, ID_TEXT_107);
;;;882                TEXT_SetBkColor(hItem,GUI_INVALID_COLOR);
;;;883                TEXT_SetTextColor(hItem, 0x00BFFFFF);
;;;884                
;;;885                hItem = WM_GetDialogItem(hWinsysinfo, ID_TEXT_99);
;;;886                TEXT_SetBkColor(hItem,0x00BFFFFF);
;;;887                TEXT_SetTextColor(hItem, GUI_BLACK);
;;;888                
;;;889                info_set = set_48;
000014  262f              MOVS     r6,#0x2f
000016  6980              LDR      r0,[r0,#0x18]         ;777
000018  f6400a99          MOV      r10,#0x899            ;777
00001c  f06f4870          MVN      r8,#0xf0000000        ;778
000020  f640191d          MOV      r9,#0x91d             ;781
000024  2910              CMP      r1,#0x10              ;773
000026  d225              BCS      |L7.116|
000028  e8dff001          TBB      [pc,r1]               ;773
00002c  08264462          DCB      0x08,0x26,0x44,0x62
000030  809ebcda          DCB      0x80,0x9e,0xbc,0xda
000034  fdfcfbfa          DCB      0xfd,0xfc,0xfb,0xfa
000038  f9f8f7f6          DCB      0xf9,0xf8,0xf7,0xf6
00003c  4651              MOV      r1,r10                ;777
00003e  f7fffffe          BL       WM_GetDialogItem
000042  4604              MOV      r4,r0                 ;777
000044  4641              MOV      r1,r8                 ;778
000046  4620              MOV      r0,r4                 ;778
000048  f7fffffe          BL       TEXT_SetBkColor
00004c  4639              MOV      r1,r7                 ;779
00004e  4620              MOV      r0,r4                 ;779
000050  f7fffffe          BL       TEXT_SetTextColor
000054  4649              MOV      r1,r9                 ;781
000056  f8db0018          LDR      r0,[r11,#0x18]        ;781  ; hWinsysinfo
00005a  f7fffffe          BL       WM_GetDialogItem
00005e  4604              MOV      r4,r0                 ;781
000060  4639              MOV      r1,r7                 ;782
000062  4620              MOV      r0,r4                 ;782
000064  f7fffffe          BL       TEXT_SetBkColor
000068  2100              MOVS     r1,#0                 ;783
00006a  4620              MOV      r0,r4                 ;783
00006c  f7fffffe          BL       TEXT_SetTextColor
000070  f88b5000          STRB     r5,[r11,#0]           ;785
                  |L7.116|
;;;890                break;
;;;891            }
;;;892            case set_62:
;;;893            {
;;;894                hItem = WM_GetDialogItem(hWinsysinfo, ID_TEXT_113);
;;;895                TEXT_SetBkColor(hItem,GUI_INVALID_COLOR);
;;;896                TEXT_SetTextColor(hItem, 0x00BFFFFF);
;;;897                
;;;898                hItem = WM_GetDialogItem(hWinsysinfo, ID_TEXT_99);
;;;899                TEXT_SetBkColor(hItem,0x00BFFFFF);
;;;900                TEXT_SetTextColor(hItem, GUI_BLACK);
;;;901                
;;;902                info_set = set_48;
;;;903                break;
;;;904            }
;;;905            case set_63:
;;;906            {
;;;907                hItem = WM_GetDialogItem(hWinsysinfo, ID_TEXT_114);
;;;908                TEXT_SetBkColor(hItem,GUI_INVALID_COLOR);
;;;909                TEXT_SetTextColor(hItem, 0x00BFFFFF);
;;;910                
;;;911                hItem = WM_GetDialogItem(hWinsysinfo, ID_TEXT_99);
;;;912                TEXT_SetBkColor(hItem,0x00BFFFFF);
;;;913                TEXT_SetTextColor(hItem, GUI_BLACK);
;;;914                
;;;915                info_set = set_48;
;;;916                break;
;;;917            }
;;;918            case set_57:
;;;919            {
;;;920                hItem = WM_GetDialogItem(hWinsysinfo, ID_TEXT_108);
;;;921                TEXT_SetBkColor(hItem,GUI_INVALID_COLOR);
;;;922                TEXT_SetTextColor(hItem, 0x00BFFFFF);
;;;923                
;;;924                hItem = WM_GetDialogItem(hWinsysinfo, ID_TEXT_99);
;;;925                TEXT_SetBkColor(hItem,0x00BFFFFF);
;;;926                TEXT_SetTextColor(hItem, GUI_BLACK);
;;;927                
;;;928                info_set = set_48;
;;;929                break;
;;;930            }
;;;931            case set_58:
;;;932            {
;;;933                hItem = WM_GetDialogItem(hWinsysinfo, ID_TEXT_109);
;;;934                TEXT_SetBkColor(hItem,GUI_INVALID_COLOR);
;;;935                TEXT_SetTextColor(hItem, 0x00BFFFFF);
;;;936                
;;;937                hItem = WM_GetDialogItem(hWinsysinfo, ID_TEXT_99);
;;;938                TEXT_SetBkColor(hItem,0x00BFFFFF);
;;;939                TEXT_SetTextColor(hItem, GUI_BLACK);
;;;940                
;;;941                info_set = set_48;
;;;942                break;
;;;943            }
;;;944            case set_59:
;;;945            {
;;;946                hItem = WM_GetDialogItem(hWinsysinfo, ID_TEXT_110);
;;;947                TEXT_SetBkColor(hItem,GUI_INVALID_COLOR);
;;;948                TEXT_SetTextColor(hItem, 0x00BFFFFF);
;;;949                
;;;950                hItem = WM_GetDialogItem(hWinsysinfo, ID_TEXT_99);
;;;951                TEXT_SetBkColor(hItem,0x00BFFFFF);
;;;952                TEXT_SetTextColor(hItem, GUI_BLACK);
;;;953                
;;;954                info_set = set_48;
;;;955                break;
;;;956            }
;;;957            case set_60:
;;;958            {
;;;959                hItem = WM_GetDialogItem(hWinsysinfo, ID_TEXT_111);
;;;960                TEXT_SetBkColor(hItem,GUI_INVALID_COLOR);
;;;961                TEXT_SetTextColor(hItem, 0x00BFFFFF);
;;;962                
;;;963                hItem = WM_GetDialogItem(hWinsysinfo, ID_TEXT_99);
;;;964                TEXT_SetBkColor(hItem,0x00BFFFFF);
;;;965                TEXT_SetTextColor(hItem, GUI_BLACK);
;;;966                
;;;967                info_set = set_48;
;;;968                break;
;;;969            }
;;;970            case set_61:
;;;971            {
;;;972                hItem = WM_GetDialogItem(hWinsysinfo, ID_TEXT_112);
;;;973                TEXT_SetBkColor(hItem,GUI_INVALID_COLOR);
;;;974                TEXT_SetTextColor(hItem, 0x00BFFFFF);
;;;975                
;;;976                hItem = WM_GetDialogItem(hWinsysinfo, ID_TEXT_99);
;;;977                TEXT_SetBkColor(hItem,0x00BFFFFF);
;;;978                TEXT_SetTextColor(hItem, GUI_BLACK);
;;;979                
;;;980                info_set = set_48;
;;;981                break;
;;;982            }
;;;983        }
;;;984        
;;;985    }
000074  e8bd9ff0          POP      {r4-r12,pc}
000078  f640019a          MOV      r1,#0x89a             ;790
00007c  f7fffffe          BL       WM_GetDialogItem
000080  4604              MOV      r4,r0                 ;790
000082  4641              MOV      r1,r8                 ;791
000084  4620              MOV      r0,r4                 ;791
000086  f7fffffe          BL       TEXT_SetBkColor
00008a  4639              MOV      r1,r7                 ;792
00008c  4620              MOV      r0,r4                 ;792
00008e  f7fffffe          BL       TEXT_SetTextColor
000092  4649              MOV      r1,r9                 ;794
000094  f8db0018          LDR      r0,[r11,#0x18]        ;794  ; hWinsysinfo
000098  f7fffffe          BL       WM_GetDialogItem
00009c  4604              MOV      r4,r0                 ;794
00009e  4639              MOV      r1,r7                 ;795
0000a0  4620              MOV      r0,r4                 ;795
0000a2  f7fffffe          BL       TEXT_SetBkColor
0000a6  2100              MOVS     r1,#0                 ;796
0000a8  4620              MOV      r0,r4                 ;796
0000aa  f7fffffe          BL       TEXT_SetTextColor
0000ae  f88b5000          STRB     r5,[r11,#0]           ;798
0000b2  e7df              B        |L7.116|
0000b4  f640019b          MOV      r1,#0x89b             ;803
0000b8  f7fffffe          BL       WM_GetDialogItem
0000bc  4604              MOV      r4,r0                 ;803
0000be  4641              MOV      r1,r8                 ;804
0000c0  4620              MOV      r0,r4                 ;804
0000c2  f7fffffe          BL       TEXT_SetBkColor
0000c6  4639              MOV      r1,r7                 ;805
0000c8  4620              MOV      r0,r4                 ;805
0000ca  f7fffffe          BL       TEXT_SetTextColor
0000ce  4649              MOV      r1,r9                 ;807
0000d0  f8db0018          LDR      r0,[r11,#0x18]        ;807  ; hWinsysinfo
0000d4  f7fffffe          BL       WM_GetDialogItem
0000d8  4604              MOV      r4,r0                 ;807
0000da  4639              MOV      r1,r7                 ;808
0000dc  4620              MOV      r0,r4                 ;808
0000de  f7fffffe          BL       TEXT_SetBkColor
0000e2  2100              MOVS     r1,#0                 ;809
0000e4  4620              MOV      r0,r4                 ;809
0000e6  f7fffffe          BL       TEXT_SetTextColor
0000ea  f88b5000          STRB     r5,[r11,#0]           ;811
0000ee  e7c1              B        |L7.116|
0000f0  f640019c          MOV      r1,#0x89c             ;816
0000f4  f7fffffe          BL       WM_GetDialogItem
0000f8  4604              MOV      r4,r0                 ;816
0000fa  4641              MOV      r1,r8                 ;817
0000fc  4620              MOV      r0,r4                 ;817
0000fe  f7fffffe          BL       TEXT_SetBkColor
000102  4639              MOV      r1,r7                 ;818
000104  4620              MOV      r0,r4                 ;818
000106  f7fffffe          BL       TEXT_SetTextColor
00010a  4649              MOV      r1,r9                 ;820
00010c  f8db0018          LDR      r0,[r11,#0x18]        ;820  ; hWinsysinfo
000110  f7fffffe          BL       WM_GetDialogItem
000114  4604              MOV      r4,r0                 ;820
000116  4639              MOV      r1,r7                 ;821
000118  4620              MOV      r0,r4                 ;821
00011a  f7fffffe          BL       TEXT_SetBkColor
00011e  2100              MOVS     r1,#0                 ;822
000120  4620              MOV      r0,r4                 ;822
000122  f7fffffe          BL       TEXT_SetTextColor
000126  f88b5000          STRB     r5,[r11,#0]           ;824
00012a  e7a3              B        |L7.116|
00012c  f640019d          MOV      r1,#0x89d             ;829
000130  f7fffffe          BL       WM_GetDialogItem
000134  4604              MOV      r4,r0                 ;829
000136  4641              MOV      r1,r8                 ;830
000138  4620              MOV      r0,r4                 ;830
00013a  f7fffffe          BL       TEXT_SetBkColor
00013e  4639              MOV      r1,r7                 ;831
000140  4620              MOV      r0,r4                 ;831
000142  f7fffffe          BL       TEXT_SetTextColor
000146  4649              MOV      r1,r9                 ;833
000148  f8db0018          LDR      r0,[r11,#0x18]        ;833  ; hWinsysinfo
00014c  f7fffffe          BL       WM_GetDialogItem
000150  4604              MOV      r4,r0                 ;833
000152  4639              MOV      r1,r7                 ;834
000154  4620              MOV      r0,r4                 ;834
000156  f7fffffe          BL       TEXT_SetBkColor
00015a  2100              MOVS     r1,#0                 ;835
00015c  4620              MOV      r0,r4                 ;835
00015e  f7fffffe          BL       TEXT_SetTextColor
000162  f88b5000          STRB     r5,[r11,#0]           ;837
000166  e785              B        |L7.116|
000168  f640019e          MOV      r1,#0x89e             ;842
00016c  f7fffffe          BL       WM_GetDialogItem
000170  4604              MOV      r4,r0                 ;842
000172  4641              MOV      r1,r8                 ;843
000174  4620              MOV      r0,r4                 ;843
000176  f7fffffe          BL       TEXT_SetBkColor
00017a  4639              MOV      r1,r7                 ;844
00017c  4620              MOV      r0,r4                 ;844
00017e  f7fffffe          BL       TEXT_SetTextColor
000182  4649              MOV      r1,r9                 ;846
000184  f8db0018          LDR      r0,[r11,#0x18]        ;846  ; hWinsysinfo
000188  f7fffffe          BL       WM_GetDialogItem
00018c  4604              MOV      r4,r0                 ;846
00018e  4639              MOV      r1,r7                 ;847
000190  4620              MOV      r0,r4                 ;847
000192  f7fffffe          BL       TEXT_SetBkColor
000196  2100              MOVS     r1,#0                 ;848
000198  4620              MOV      r0,r4                 ;848
00019a  f7fffffe          BL       TEXT_SetTextColor
00019e  f88b5000          STRB     r5,[r11,#0]           ;850
0001a2  e767              B        |L7.116|
0001a4  f6401115          MOV      r1,#0x915             ;855
0001a8  f7fffffe          BL       WM_GetDialogItem
0001ac  4604              MOV      r4,r0                 ;855
0001ae  4641              MOV      r1,r8                 ;856
0001b0  4620              MOV      r0,r4                 ;856
0001b2  f7fffffe          BL       TEXT_SetBkColor
0001b6  4639              MOV      r1,r7                 ;857
0001b8  4620              MOV      r0,r4                 ;857
0001ba  f7fffffe          BL       TEXT_SetTextColor
0001be  4649              MOV      r1,r9                 ;859
0001c0  f8db0018          LDR      r0,[r11,#0x18]        ;859  ; hWinsysinfo
0001c4  f7fffffe          BL       WM_GetDialogItem
0001c8  4604              MOV      r4,r0                 ;859
0001ca  4639              MOV      r1,r7                 ;860
0001cc  4620              MOV      r0,r4                 ;860
0001ce  f7fffffe          BL       TEXT_SetBkColor
0001d2  2100              MOVS     r1,#0                 ;861
0001d4  4620              MOV      r0,r4                 ;861
0001d6  f7fffffe          BL       TEXT_SetTextColor
0001da  f88b5000          STRB     r5,[r11,#0]           ;863
0001de  e749              B        |L7.116|
0001e0  f6401116          MOV      r1,#0x916             ;868
0001e4  f7fffffe          BL       WM_GetDialogItem
0001e8  4604              MOV      r4,r0                 ;868
0001ea  4641              MOV      r1,r8                 ;869
0001ec  4620              MOV      r0,r4                 ;869
0001ee  f7fffffe          BL       TEXT_SetBkColor
0001f2  4639              MOV      r1,r7                 ;870
0001f4  4620              MOV      r0,r4                 ;870
0001f6  f7fffffe          BL       TEXT_SetTextColor
0001fa  4649              MOV      r1,r9                 ;872
0001fc  f8db0018          LDR      r0,[r11,#0x18]        ;872  ; hWinsysinfo
000200  f7fffffe          BL       WM_GetDialogItem
000204  4604              MOV      r4,r0                 ;872
000206  4639              MOV      r1,r7                 ;873
000208  4620              MOV      r0,r4                 ;873
00020a  f7fffffe          BL       TEXT_SetBkColor
00020e  2100              MOVS     r1,#0                 ;874
000210  4620              MOV      r0,r4                 ;874
000212  f7fffffe          BL       TEXT_SetTextColor
000216  e007              B        |L7.552|
000218  e044              B        |L7.676|
00021a  e026              B        |L7.618|
00021c  e0d8              B        |L7.976|
00021e  e0b9              B        |L7.916|
000220  e09a              B        |L7.856|
000222  e07b              B        |L7.796|
000224  e05c              B        |L7.736|
000226  e002              B        |L7.558|
                  |L7.552|
000228  f88b5000          STRB     r5,[r11,#0]           ;876
00022c  e722              B        |L7.116|
                  |L7.558|
00022e  f6401117          MOV      r1,#0x917             ;881
000232  f7fffffe          BL       WM_GetDialogItem
000236  4604              MOV      r4,r0                 ;881
000238  4641              MOV      r1,r8                 ;882
00023a  4620              MOV      r0,r4                 ;882
00023c  f7fffffe          BL       TEXT_SetBkColor
000240  4639              MOV      r1,r7                 ;883
000242  4620              MOV      r0,r4                 ;883
000244  f7fffffe          BL       TEXT_SetTextColor
000248  4651              MOV      r1,r10                ;885
00024a  f8db0018          LDR      r0,[r11,#0x18]        ;885  ; hWinsysinfo
00024e  f7fffffe          BL       WM_GetDialogItem
000252  4604              MOV      r4,r0                 ;885
000254  4639              MOV      r1,r7                 ;886
000256  4620              MOV      r0,r4                 ;886
000258  f7fffffe          BL       TEXT_SetBkColor
00025c  2100              MOVS     r1,#0                 ;887
00025e  4620              MOV      r0,r4                 ;887
000260  f7fffffe          BL       TEXT_SetTextColor
000264  f88b6000          STRB     r6,[r11,#0]           ;889
000268  e704              B        |L7.116|
                  |L7.618|
00026a  4649              MOV      r1,r9                 ;894
00026c  f7fffffe          BL       WM_GetDialogItem
000270  4604              MOV      r4,r0                 ;894
000272  4641              MOV      r1,r8                 ;895
000274  4620              MOV      r0,r4                 ;895
000276  f7fffffe          BL       TEXT_SetBkColor
00027a  4639              MOV      r1,r7                 ;896
00027c  4620              MOV      r0,r4                 ;896
00027e  f7fffffe          BL       TEXT_SetTextColor
000282  4651              MOV      r1,r10                ;898
000284  f8db0018          LDR      r0,[r11,#0x18]        ;898  ; hWinsysinfo
000288  f7fffffe          BL       WM_GetDialogItem
00028c  4604              MOV      r4,r0                 ;898
00028e  4639              MOV      r1,r7                 ;899
000290  4620              MOV      r0,r4                 ;899
000292  f7fffffe          BL       TEXT_SetBkColor
000296  2100              MOVS     r1,#0                 ;900
000298  4620              MOV      r0,r4                 ;900
00029a  f7fffffe          BL       TEXT_SetTextColor
00029e  f88b6000          STRB     r6,[r11,#0]           ;902
0002a2  e6e7              B        |L7.116|
                  |L7.676|
0002a4  f640111e          MOV      r1,#0x91e             ;907
0002a8  f7fffffe          BL       WM_GetDialogItem
0002ac  4604              MOV      r4,r0                 ;907
0002ae  4641              MOV      r1,r8                 ;908
0002b0  4620              MOV      r0,r4                 ;908
0002b2  f7fffffe          BL       TEXT_SetBkColor
0002b6  4639              MOV      r1,r7                 ;909
0002b8  4620              MOV      r0,r4                 ;909
0002ba  f7fffffe          BL       TEXT_SetTextColor
0002be  4651              MOV      r1,r10                ;911
0002c0  f8db0018          LDR      r0,[r11,#0x18]        ;911  ; hWinsysinfo
0002c4  f7fffffe          BL       WM_GetDialogItem
0002c8  4604              MOV      r4,r0                 ;911
0002ca  4639              MOV      r1,r7                 ;912
0002cc  4620              MOV      r0,r4                 ;912
0002ce  f7fffffe          BL       TEXT_SetBkColor
0002d2  2100              MOVS     r1,#0                 ;913
0002d4  4620              MOV      r0,r4                 ;913
0002d6  f7fffffe          BL       TEXT_SetTextColor
0002da  f88b6000          STRB     r6,[r11,#0]           ;915
0002de  e6c9              B        |L7.116|
                  |L7.736|
0002e0  f6401118          MOV      r1,#0x918             ;920
0002e4  f7fffffe          BL       WM_GetDialogItem
0002e8  4604              MOV      r4,r0                 ;920
0002ea  4641              MOV      r1,r8                 ;921
0002ec  4620              MOV      r0,r4                 ;921
0002ee  f7fffffe          BL       TEXT_SetBkColor
0002f2  4639              MOV      r1,r7                 ;922
0002f4  4620              MOV      r0,r4                 ;922
0002f6  f7fffffe          BL       TEXT_SetTextColor
0002fa  4651              MOV      r1,r10                ;924
0002fc  f8db0018          LDR      r0,[r11,#0x18]        ;924  ; hWinsysinfo
000300  f7fffffe          BL       WM_GetDialogItem
000304  4604              MOV      r4,r0                 ;924
000306  4639              MOV      r1,r7                 ;925
000308  4620              MOV      r0,r4                 ;925
00030a  f7fffffe          BL       TEXT_SetBkColor
00030e  2100              MOVS     r1,#0                 ;926
000310  4620              MOV      r0,r4                 ;926
000312  f7fffffe          BL       TEXT_SetTextColor
000316  f88b6000          STRB     r6,[r11,#0]           ;928
00031a  e6ab              B        |L7.116|
                  |L7.796|
00031c  f6401119          MOV      r1,#0x919             ;933
000320  f7fffffe          BL       WM_GetDialogItem
000324  4604              MOV      r4,r0                 ;933
000326  4641              MOV      r1,r8                 ;934
000328  4620              MOV      r0,r4                 ;934
00032a  f7fffffe          BL       TEXT_SetBkColor
00032e  4639              MOV      r1,r7                 ;935
000330  4620              MOV      r0,r4                 ;935
000332  f7fffffe          BL       TEXT_SetTextColor
000336  4651              MOV      r1,r10                ;937
000338  f8db0018          LDR      r0,[r11,#0x18]        ;937  ; hWinsysinfo
00033c  f7fffffe          BL       WM_GetDialogItem
000340  4604              MOV      r4,r0                 ;937
000342  4639              MOV      r1,r7                 ;938
000344  4620              MOV      r0,r4                 ;938
000346  f7fffffe          BL       TEXT_SetBkColor
00034a  2100              MOVS     r1,#0                 ;939
00034c  4620              MOV      r0,r4                 ;939
00034e  f7fffffe          BL       TEXT_SetTextColor
000352  f88b6000          STRB     r6,[r11,#0]           ;941
000356  e68d              B        |L7.116|
                  |L7.856|
000358  f640111a          MOV      r1,#0x91a             ;946
00035c  f7fffffe          BL       WM_GetDialogItem
000360  4604              MOV      r4,r0                 ;946
000362  4641              MOV      r1,r8                 ;947
000364  4620              MOV      r0,r4                 ;947
000366  f7fffffe          BL       TEXT_SetBkColor
00036a  4639              MOV      r1,r7                 ;948
00036c  4620              MOV      r0,r4                 ;948
00036e  f7fffffe          BL       TEXT_SetTextColor
000372  4651              MOV      r1,r10                ;950
000374  f8db0018          LDR      r0,[r11,#0x18]        ;950  ; hWinsysinfo
000378  f7fffffe          BL       WM_GetDialogItem
00037c  4604              MOV      r4,r0                 ;950
00037e  4639              MOV      r1,r7                 ;951
000380  4620              MOV      r0,r4                 ;951
000382  f7fffffe          BL       TEXT_SetBkColor
000386  2100              MOVS     r1,#0                 ;952
000388  4620              MOV      r0,r4                 ;952
00038a  f7fffffe          BL       TEXT_SetTextColor
00038e  f88b6000          STRB     r6,[r11,#0]           ;954
000392  e66f              B        |L7.116|
                  |L7.916|
000394  f640111b          MOV      r1,#0x91b             ;959
000398  f7fffffe          BL       WM_GetDialogItem
00039c  4604              MOV      r4,r0                 ;959
00039e  4641              MOV      r1,r8                 ;960
0003a0  4620              MOV      r0,r4                 ;960
0003a2  f7fffffe          BL       TEXT_SetBkColor
0003a6  4639              MOV      r1,r7                 ;961
0003a8  4620              MOV      r0,r4                 ;961
0003aa  f7fffffe          BL       TEXT_SetTextColor
0003ae  4651              MOV      r1,r10                ;963
0003b0  f8db0018          LDR      r0,[r11,#0x18]        ;963  ; hWinsysinfo
0003b4  f7fffffe          BL       WM_GetDialogItem
0003b8  4604              MOV      r4,r0                 ;963
0003ba  4639              MOV      r1,r7                 ;964
0003bc  4620              MOV      r0,r4                 ;964
0003be  f7fffffe          BL       TEXT_SetBkColor
0003c2  2100              MOVS     r1,#0                 ;965
0003c4  4620              MOV      r0,r4                 ;965
0003c6  f7fffffe          BL       TEXT_SetTextColor
0003ca  f88b6000          STRB     r6,[r11,#0]           ;967
0003ce  e651              B        |L7.116|
                  |L7.976|
0003d0  f640111c          MOV      r1,#0x91c             ;972
0003d4  f7fffffe          BL       WM_GetDialogItem
0003d8  4604              MOV      r4,r0                 ;972
0003da  4641              MOV      r1,r8                 ;973
0003dc  4620              MOV      r0,r4                 ;973
0003de  f7fffffe          BL       TEXT_SetBkColor
0003e2  4639              MOV      r1,r7                 ;974
0003e4  4620              MOV      r0,r4                 ;974
0003e6  f7fffffe          BL       TEXT_SetTextColor
0003ea  4651              MOV      r1,r10                ;976
0003ec  f8db0018          LDR      r0,[r11,#0x18]        ;976  ; hWinsysinfo
0003f0  f7fffffe          BL       WM_GetDialogItem
0003f4  4604              MOV      r4,r0                 ;976
0003f6  4639              MOV      r1,r7                 ;977
0003f8  4620              MOV      r0,r4                 ;977
0003fa  f7fffffe          BL       TEXT_SetBkColor
0003fe  2100              MOVS     r1,#0                 ;978
000400  4620              MOV      r0,r4                 ;978
000402  f7fffffe          BL       TEXT_SetTextColor
000406  f88b6000          STRB     r6,[r11,#0]           ;980
00040a  e633              B        |L7.116|
                  |L7.1036|
                          DCD      ||.data||
                  |L7.1040|
                          DCD      0x00bfffff
                          ENDP


                          AREA ||i._cbDialog||, CODE, READONLY, ALIGN=2

                          REQUIRE _printf_percent
                          REQUIRE _printf_d
                          REQUIRE _printf_int_dec
                  _cbDialog PROC
;;;119    */
;;;120    static void _cbDialog(WM_MESSAGE * pMsg) {
000000  e92d41f0          PUSH     {r4-r8,lr}
000004  4604              MOV      r4,r0
;;;121        WM_HWIN hItem;
;;;122        static char buf[5];
;;;123    
;;;124    
;;;125        
;;;126      
;;;127      // USER START (Optionally insert additional variables)
;;;128      // USER END
;;;129    
;;;130      switch (pMsg->MsgId) {
;;;131    		
;;;132    	case WM_PAINT:
;;;133            GUI_SetColor(GUI_WHITE);//
;;;134            GUI_FillRect(0,25,480,26);//
;;;135            GUI_SetColor(GUI_ORANGE);
;;;136            GUI_SetFont(&GUI_Fontsymbol);
;;;137            GUI_UC_SetEncodeUTF8();
;;;138            GUI_SetTextMode(GUI_TM_TRANS);//
;;;139            GUI_DispStringAt("Jinko", 5, 1);//SET
;;;140            GUI_SetColor(GUI_WHITE);
;;;141            GUI_SetFont(&GUI_FontHZ20S);
;;;142            GUI_UC_SetEncodeUTF8();
;;;143            GUI_SetTextMode(GUI_TM_TRANS);//
;;;144            GUI_DispStringAt("", 130, 3);//SET
;;;145            GUI_SetColor(GUI_LIGHTBLUE);
;;;146            GUI_SetFont(&GUI_Fontset_font);
;;;147            GUI_DispStringAt("", 30, 50);
;;;148            GUI_DispStringAt("", 30, 75);
;;;149            GUI_DispStringAt("", 30, 100);
;;;150            GUI_DispStringAt("", 30, 125);
;;;151            GUI_DispStringAt("", 30, 150);
;;;152            GUI_SetColor(0x00BFFFFF);
000006  4ffe              LDR      r7,|L8.1024|
000008  6820              LDR      r0,[r4,#0]            ;130
00000a  280f              CMP      r0,#0xf               ;130
00000c  d00b              BEQ      |L8.38|
;;;153            GUI_SetFont(&GUI_Font24_1);
;;;154            GUI_DispStringAt("JK5530B", 140, 50);
;;;155            GUI_DispStringAt("Ver:1.3", 140, 75);
;;;156           
;;;157            GUI_DispStringAt("Ver:1.1", 140, 100);
;;;158            GUI_DispStringAt("-", 191, 125);
;;;159            GUI_DispStringAt("-", 227, 125);
;;;160            GUI_DispStringAt("A", 164, 150);
;;;161    	break;
;;;162    	case WM_TIMER:
;;;163    	if(WM_GetTimerId(pMsg->Data.v) == ID_TimerTime7)
;;;164    	{
;;;165            if(pass == 14)
;;;166            {
;;;167                admin = 1;
00000e  4efd              LDR      r6,|L8.1028|
000010  281d              CMP      r0,#0x1d              ;130
000012  d07c              BEQ      |L8.270|
000014  f5a07080          SUB      r0,r0,#0x100          ;130
000018  3813              SUBS     r0,r0,#0x13           ;130
00001a  d076              BEQ      |L8.266|
;;;168            }else{
;;;169                admin = 0;
;;;170            }
;;;171    		WM_RestartTimer(pMsg->Data.v,500);//
;;;172            
;;;173            
;;;174    	}
;;;175    	break;
;;;176        
;;;177    		
;;;178      case WM_INIT_DIALOG:
;;;179          hItem = pMsg->hWin;
;;;180          WINDOW_SetBkColor(hItem, GUI_BLACK);
;;;181          WM_CreateTimer(hItem,ID_TimerTime7,20,0);
;;;182      
;;;183          hItem = WM_GetDialogItem(pMsg->hWin, ID_TEXT_99);
;;;184          GUI_UC_SetEncodeUTF8();
;;;185          sprintf(buf,"%d",year1);
;;;186          TEXT_SetText(hItem,buf);
;;;187          TEXT_SetTextColor(hItem, 0x00BFFFFF);
;;;188          TEXT_SetFont(hItem, &GUI_Font24_1);
;;;189    	
;;;190    	  hItem = WM_GetDialogItem(pMsg->hWin, ID_TEXT_100);
;;;191          GUI_UC_SetEncodeUTF8();
;;;192          sprintf(buf,"%d",year2);
;;;193          TEXT_SetText(hItem,buf);
;;;194          TEXT_SetTextColor(hItem, 0x00BFFFFF);
;;;195          TEXT_SetFont(hItem, &GUI_Font24_1);
;;;196    		
;;;197    	  hItem = WM_GetDialogItem(pMsg->hWin, ID_TEXT_101);
;;;198          GUI_UC_SetEncodeUTF8();
;;;199          sprintf(buf,"%d",year3);
;;;200          TEXT_SetText(hItem,buf);
;;;201          TEXT_SetTextColor(hItem, 0x00BFFFFF);
;;;202          TEXT_SetFont(hItem, &GUI_Font24_1);
;;;203    		
;;;204    	  hItem = WM_GetDialogItem(pMsg->hWin, ID_TEXT_102);
;;;205          GUI_UC_SetEncodeUTF8();
;;;206          sprintf(buf,"%d",year4);
;;;207          TEXT_SetText(hItem,buf);
;;;208          TEXT_SetTextColor(hItem, 0x00BFFFFF);
;;;209          TEXT_SetFont(hItem, &GUI_Font24_1);
;;;210          
;;;211          hItem = WM_GetDialogItem(pMsg->hWin, ID_TEXT_103);
;;;212          GUI_UC_SetEncodeUTF8();
;;;213          sprintf(buf,"%d",month1);
;;;214          TEXT_SetText(hItem,buf);
;;;215          TEXT_SetTextColor(hItem, 0x00BFFFFF);
;;;216          TEXT_SetFont(hItem, &GUI_Font24_1);
;;;217    	
;;;218    	  hItem = WM_GetDialogItem(pMsg->hWin, ID_TEXT_104);
;;;219          GUI_UC_SetEncodeUTF8();
;;;220          sprintf(buf,"%d",month2);
;;;221          TEXT_SetText(hItem,buf);
;;;222          TEXT_SetTextColor(hItem, 0x00BFFFFF);
;;;223          TEXT_SetFont(hItem, &GUI_Font24_1);
;;;224    		
;;;225    	  hItem = WM_GetDialogItem(pMsg->hWin, ID_TEXT_105);
;;;226          GUI_UC_SetEncodeUTF8();
;;;227          sprintf(buf,"%d",day1);
;;;228          TEXT_SetText(hItem,buf);
;;;229          TEXT_SetTextColor(hItem, 0x00BFFFFF);
;;;230          TEXT_SetFont(hItem, &GUI_Font24_1);
;;;231    		
;;;232    	  hItem = WM_GetDialogItem(pMsg->hWin, ID_TEXT_106);
;;;233          GUI_UC_SetEncodeUTF8();
;;;234          sprintf(buf,"%d",day2);
;;;235          TEXT_SetText(hItem,buf);
;;;236          TEXT_SetTextColor(hItem, 0x00BFFFFF);
;;;237          TEXT_SetFont(hItem, &GUI_Font24_1);
;;;238    	
;;;239          hItem = WM_GetDialogItem(pMsg->hWin, ID_TEXT_107);
;;;240          GUI_UC_SetEncodeUTF8();
;;;241          sprintf(buf,"%d",code3);
;;;242          TEXT_SetText(hItem,buf);
;;;243          TEXT_SetTextColor(hItem, 0x00BFFFFF);
;;;244          TEXT_SetFont(hItem, &GUI_Font24_1);
;;;245    		
;;;246    	  hItem = WM_GetDialogItem(pMsg->hWin, ID_TEXT_108);
;;;247          GUI_UC_SetEncodeUTF8();
;;;248          sprintf(buf,"%d",code4);
;;;249          TEXT_SetText(hItem,buf);
;;;250          TEXT_SetTextColor(hItem, 0x00BFFFFF);
;;;251          TEXT_SetFont(hItem, &GUI_Font24_1);
;;;252          
;;;253          hItem = WM_GetDialogItem(pMsg->hWin, ID_TEXT_109);
;;;254          GUI_UC_SetEncodeUTF8();
;;;255          sprintf(buf,"%d",code5);
;;;256          TEXT_SetText(hItem,buf);
;;;257          TEXT_SetTextColor(hItem, 0x00BFFFFF);
;;;258          TEXT_SetFont(hItem, &GUI_Font24_1);
;;;259    		
;;;260    	  hItem = WM_GetDialogItem(pMsg->hWin, ID_TEXT_110);
;;;261          GUI_UC_SetEncodeUTF8();
;;;262          sprintf(buf,"%d",code6);
;;;263          TEXT_SetText(hItem,buf);
;;;264          TEXT_SetTextColor(hItem, 0x00BFFFFF);
;;;265          TEXT_SetFont(hItem, &GUI_Font24_1);
;;;266          
;;;267          hItem = WM_GetDialogItem(pMsg->hWin, ID_TEXT_111);
;;;268          GUI_UC_SetEncodeUTF8();
;;;269          sprintf(buf,"%d",code7);
;;;270          TEXT_SetText(hItem,buf);
;;;271          TEXT_SetTextColor(hItem, 0x00BFFFFF);
;;;272          TEXT_SetFont(hItem, &GUI_Font24_1);
;;;273    		
;;;274    	  hItem = WM_GetDialogItem(pMsg->hWin, ID_TEXT_112);
;;;275          GUI_UC_SetEncodeUTF8();
;;;276          sprintf(buf,"%d",code8);
;;;277          TEXT_SetText(hItem,buf);
;;;278          TEXT_SetTextColor(hItem, 0x00BFFFFF);
;;;279          TEXT_SetFont(hItem, &GUI_Font24_1);
;;;280          
;;;281          hItem = WM_GetDialogItem(pMsg->hWin, ID_TEXT_113);
;;;282          GUI_UC_SetEncodeUTF8();
;;;283          sprintf(buf,"%d",code1);
;;;284          TEXT_SetText(hItem,buf);
;;;285          TEXT_SetTextColor(hItem, 0x00BFFFFF);
;;;286          TEXT_SetFont(hItem, &GUI_Font24_1);
;;;287    		
;;;288    	  hItem = WM_GetDialogItem(pMsg->hWin, ID_TEXT_114);
;;;289          GUI_UC_SetEncodeUTF8();
;;;290          sprintf(buf,"%d",code2);
;;;291          TEXT_SetText(hItem,buf);
;;;292          TEXT_SetTextColor(hItem, 0x00BFFFFF);
;;;293          TEXT_SetFont(hItem, &GUI_Font24_1);
;;;294          
;;;295    
;;;296    
;;;297        // USER START (Optionally insert additional code for further widget initialization)
;;;298        // USER END
;;;299            break;
;;;300      // USER START (Optionally insert additional message handling)
;;;301      // USER END
;;;302        default:
;;;303            WM_DefaultProc(pMsg);
00001c  4620              MOV      r0,r4
00001e  e8bd41f0          POP      {r4-r8,lr}
000022  f7ffbffe          B.W      WM_DefaultProc
                  |L8.38|
000026  f06f447f          MVN      r4,#0xff000000        ;133
00002a  4620              MOV      r0,r4                 ;133
00002c  f7fffffe          BL       GUI_SetColor
000030  231a              MOVS     r3,#0x1a              ;134
000032  f44f72f0          MOV      r2,#0x1e0             ;134
000036  2119              MOVS     r1,#0x19              ;134
000038  2000              MOVS     r0,#0                 ;134
00003a  f7fffffe          BL       GUI_FillRect
00003e  f24a50ff          MOV      r0,#0xa5ff            ;135
000042  f7fffffe          BL       GUI_SetColor
000046  48f0              LDR      r0,|L8.1032|
000048  f7fffffe          BL       GUI_SetFont
00004c  f7fffffe          BL       GUI_UC_SetEncodeUTF8
000050  2002              MOVS     r0,#2                 ;138
000052  f7fffffe          BL       GUI_SetTextMode
000056  2201              MOVS     r2,#1                 ;139
000058  2105              MOVS     r1,#5                 ;139
00005a  a0ec              ADR      r0,|L8.1036|
00005c  f7fffffe          BL       GUI_DispStringAt
000060  4620              MOV      r0,r4                 ;140
000062  f7fffffe          BL       GUI_SetColor
000066  48eb              LDR      r0,|L8.1044|
000068  f7fffffe          BL       GUI_SetFont
00006c  f7fffffe          BL       GUI_UC_SetEncodeUTF8
000070  2002              MOVS     r0,#2                 ;143
000072  f7fffffe          BL       GUI_SetTextMode
000076  2203              MOVS     r2,#3                 ;144
000078  2182              MOVS     r1,#0x82              ;144
00007a  a0e7              ADR      r0,|L8.1048|
00007c  f7fffffe          BL       GUI_DispStringAt
000080  48e9              LDR      r0,|L8.1064|
000082  f7fffffe          BL       GUI_SetColor
000086  48e9              LDR      r0,|L8.1068|
000088  f7fffffe          BL       GUI_SetFont
00008c  2232              MOVS     r2,#0x32              ;147
00008e  211e              MOVS     r1,#0x1e              ;147
000090  a0e7              ADR      r0,|L8.1072|
000092  f7fffffe          BL       GUI_DispStringAt
000096  224b              MOVS     r2,#0x4b              ;148
000098  211e              MOVS     r1,#0x1e              ;148
00009a  a0e9              ADR      r0,|L8.1088|
00009c  f7fffffe          BL       GUI_DispStringAt
0000a0  2264              MOVS     r2,#0x64              ;149
0000a2  211e              MOVS     r1,#0x1e              ;149
0000a4  a0ea              ADR      r0,|L8.1104|
0000a6  f7fffffe          BL       GUI_DispStringAt
0000aa  227d              MOVS     r2,#0x7d              ;150
0000ac  211e              MOVS     r1,#0x1e              ;150
0000ae  a0ec              ADR      r0,|L8.1120|
0000b0  f7fffffe          BL       GUI_DispStringAt
0000b4  2296              MOVS     r2,#0x96              ;151
0000b6  211e              MOVS     r1,#0x1e              ;151
0000b8  a0ed              ADR      r0,|L8.1136|
0000ba  f7fffffe          BL       GUI_DispStringAt
0000be  4638              MOV      r0,r7                 ;152
0000c0  f7fffffe          BL       GUI_SetColor
0000c4  48ee              LDR      r0,|L8.1152|
0000c6  f7fffffe          BL       GUI_SetFont
0000ca  2232              MOVS     r2,#0x32              ;154
0000cc  218c              MOVS     r1,#0x8c              ;154
0000ce  a0ed              ADR      r0,|L8.1156|
0000d0  f7fffffe          BL       GUI_DispStringAt
0000d4  224b              MOVS     r2,#0x4b              ;155
0000d6  218c              MOVS     r1,#0x8c              ;155
0000d8  a0ec              ADR      r0,|L8.1164|
0000da  f7fffffe          BL       GUI_DispStringAt
0000de  2264              MOVS     r2,#0x64              ;157
0000e0  218c              MOVS     r1,#0x8c              ;157
0000e2  a0ec              ADR      r0,|L8.1172|
0000e4  f7fffffe          BL       GUI_DispStringAt
0000e8  227d              MOVS     r2,#0x7d              ;158
0000ea  21bf              MOVS     r1,#0xbf              ;158
0000ec  a0eb              ADR      r0,|L8.1180|
0000ee  f7fffffe          BL       GUI_DispStringAt
0000f2  227d              MOVS     r2,#0x7d              ;159
0000f4  21e3              MOVS     r1,#0xe3              ;159
0000f6  a0e9              ADR      r0,|L8.1180|
0000f8  f7fffffe          BL       GUI_DispStringAt
0000fc  e8bd41f0          POP      {r4-r8,lr}            ;160
000100  2296              MOVS     r2,#0x96              ;160
000102  21a4              MOVS     r1,#0xa4              ;160
000104  a0e6              ADR      r0,|L8.1184|
000106  f7ffbffe          B.W      GUI_DispStringAt
                  |L8.266|
00010a  68e0              LDR      r0,[r4,#0xc]          ;163
00010c  e000              B        |L8.272|
                  |L8.270|
00010e  e013              B        |L8.312|
                  |L8.272|
000110  f7fffffe          BL       WM_GetTimerId
000114  2808              CMP      r0,#8                 ;163
000116  d17d              BNE      |L8.532|
000118  48e2              LDR      r0,|L8.1188|
00011a  7800              LDRB     r0,[r0,#0]            ;165  ; pass
00011c  280e              CMP      r0,#0xe               ;165
00011e  d008              BEQ      |L8.306|
000120  2000              MOVS     r0,#0                 ;169
000122  7170              STRB     r0,[r6,#5]            ;169
                  |L8.292|
000124  68e0              LDR      r0,[r4,#0xc]          ;171
000126  e8bd41f0          POP      {r4-r8,lr}            ;171
00012a  f44f71fa          MOV      r1,#0x1f4             ;171
00012e  f7ffbffe          B.W      WM_RestartTimer
                  |L8.306|
000132  2001              MOVS     r0,#1                 ;167
000134  7170              STRB     r0,[r6,#5]            ;167
000136  e7f5              B        |L8.292|
                  |L8.312|
000138  6865              LDR      r5,[r4,#4]            ;179
00013a  2100              MOVS     r1,#0                 ;180
00013c  4628              MOV      r0,r5                 ;180
00013e  f7fffffe          BL       WINDOW_SetBkColor
000142  2300              MOVS     r3,#0                 ;181
000144  2214              MOVS     r2,#0x14              ;181
000146  2108              MOVS     r1,#8                 ;181
000148  4628              MOV      r0,r5                 ;181
00014a  f7fffffe          BL       WM_CreateTimer
00014e  f6400199          MOV      r1,#0x899             ;183
000152  6860              LDR      r0,[r4,#4]            ;183
000154  f7fffffe          BL       WM_GetDialogItem
000158  4605              MOV      r5,r0                 ;183
00015a  f7fffffe          BL       GUI_UC_SetEncodeUTF8
00015e  89f2              LDRH     r2,[r6,#0xe]          ;185  ; year1
000160  48a8              LDR      r0,|L8.1028|
000162  a1d1              ADR      r1,|L8.1192|
000164  301c              ADDS     r0,r0,#0x1c           ;185
000166  f7fffffe          BL       __2sprintf
00016a  49a6              LDR      r1,|L8.1028|
00016c  4628              MOV      r0,r5                 ;186
00016e  311c              ADDS     r1,r1,#0x1c           ;186
000170  f7fffffe          BL       TEXT_SetText
000174  4639              MOV      r1,r7                 ;187
000176  4628              MOV      r0,r5                 ;187
000178  f7fffffe          BL       TEXT_SetTextColor
00017c  49c0              LDR      r1,|L8.1152|
00017e  4628              MOV      r0,r5                 ;188
000180  f7fffffe          BL       TEXT_SetFont
000184  f640019a          MOV      r1,#0x89a             ;190
000188  6860              LDR      r0,[r4,#4]            ;190
00018a  f7fffffe          BL       WM_GetDialogItem
00018e  4605              MOV      r5,r0                 ;190
000190  f7fffffe          BL       GUI_UC_SetEncodeUTF8
000194  8a32              LDRH     r2,[r6,#0x10]         ;192  ; year2
000196  489b              LDR      r0,|L8.1028|
000198  a1c3              ADR      r1,|L8.1192|
00019a  301c              ADDS     r0,r0,#0x1c           ;192
00019c  f7fffffe          BL       __2sprintf
0001a0  4998              LDR      r1,|L8.1028|
0001a2  4628              MOV      r0,r5                 ;193
0001a4  311c              ADDS     r1,r1,#0x1c           ;193
0001a6  f7fffffe          BL       TEXT_SetText
0001aa  4639              MOV      r1,r7                 ;194
0001ac  4628              MOV      r0,r5                 ;194
0001ae  f7fffffe          BL       TEXT_SetTextColor
0001b2  49b3              LDR      r1,|L8.1152|
0001b4  4628              MOV      r0,r5                 ;195
0001b6  f7fffffe          BL       TEXT_SetFont
0001ba  f640019b          MOV      r1,#0x89b             ;197
0001be  6860              LDR      r0,[r4,#4]            ;197
0001c0  f7fffffe          BL       WM_GetDialogItem
0001c4  4605              MOV      r5,r0                 ;197
0001c6  f7fffffe          BL       GUI_UC_SetEncodeUTF8
0001ca  8a72              LDRH     r2,[r6,#0x12]         ;199  ; year3
0001cc  488d              LDR      r0,|L8.1028|
0001ce  a1b6              ADR      r1,|L8.1192|
0001d0  301c              ADDS     r0,r0,#0x1c           ;199
0001d2  f7fffffe          BL       __2sprintf
0001d6  498b              LDR      r1,|L8.1028|
0001d8  4628              MOV      r0,r5                 ;200
0001da  311c              ADDS     r1,r1,#0x1c           ;200
0001dc  f7fffffe          BL       TEXT_SetText
0001e0  4639              MOV      r1,r7                 ;201
0001e2  4628              MOV      r0,r5                 ;201
0001e4  f7fffffe          BL       TEXT_SetTextColor
0001e8  49a5              LDR      r1,|L8.1152|
0001ea  4628              MOV      r0,r5                 ;202
0001ec  f7fffffe          BL       TEXT_SetFont
0001f0  f640019c          MOV      r1,#0x89c             ;204
0001f4  6860              LDR      r0,[r4,#4]            ;204
0001f6  f7fffffe          BL       WM_GetDialogItem
0001fa  4605              MOV      r5,r0                 ;204
0001fc  f7fffffe          BL       GUI_UC_SetEncodeUTF8
000200  8ab2              LDRH     r2,[r6,#0x14]         ;206  ; year4
000202  4880              LDR      r0,|L8.1028|
000204  a1a8              ADR      r1,|L8.1192|
000206  301c              ADDS     r0,r0,#0x1c           ;206
000208  f7fffffe          BL       __2sprintf
00020c  497d              LDR      r1,|L8.1028|
00020e  4628              MOV      r0,r5                 ;207
000210  311c              ADDS     r1,r1,#0x1c           ;207
000212  e000              B        |L8.534|
                  |L8.532|
000214  e1a4              B        |L8.1376|
                  |L8.534|
000216  f7fffffe          BL       TEXT_SetText
00021a  4639              MOV      r1,r7                 ;208
00021c  4628              MOV      r0,r5                 ;208
00021e  f7fffffe          BL       TEXT_SetTextColor
000222  4997              LDR      r1,|L8.1152|
000224  4628              MOV      r0,r5                 ;209
000226  f7fffffe          BL       TEXT_SetFont
00022a  f640019d          MOV      r1,#0x89d             ;211
00022e  6860              LDR      r0,[r4,#4]            ;211
000230  f7fffffe          BL       WM_GetDialogItem
000234  4605              MOV      r5,r0                 ;211
000236  f7fffffe          BL       GUI_UC_SetEncodeUTF8
00023a  7872              LDRB     r2,[r6,#1]            ;213  ; month1
00023c  4871              LDR      r0,|L8.1028|
00023e  a19a              ADR      r1,|L8.1192|
000240  301c              ADDS     r0,r0,#0x1c           ;213
000242  f7fffffe          BL       __2sprintf
000246  496f              LDR      r1,|L8.1028|
000248  4628              MOV      r0,r5                 ;214
00024a  311c              ADDS     r1,r1,#0x1c           ;214
00024c  f7fffffe          BL       TEXT_SetText
000250  4639              MOV      r1,r7                 ;215
000252  4628              MOV      r0,r5                 ;215
000254  f7fffffe          BL       TEXT_SetTextColor
000258  4989              LDR      r1,|L8.1152|
00025a  4628              MOV      r0,r5                 ;216
00025c  f7fffffe          BL       TEXT_SetFont
000260  f640019e          MOV      r1,#0x89e             ;218
000264  6860              LDR      r0,[r4,#4]            ;218
000266  f7fffffe          BL       WM_GetDialogItem
00026a  4605              MOV      r5,r0                 ;218
00026c  f7fffffe          BL       GUI_UC_SetEncodeUTF8
000270  78b2              LDRB     r2,[r6,#2]            ;220  ; month2
000272  4864              LDR      r0,|L8.1028|
000274  a18c              ADR      r1,|L8.1192|
000276  301c              ADDS     r0,r0,#0x1c           ;220
000278  f7fffffe          BL       __2sprintf
00027c  4961              LDR      r1,|L8.1028|
00027e  4628              MOV      r0,r5                 ;221
000280  311c              ADDS     r1,r1,#0x1c           ;221
000282  f7fffffe          BL       TEXT_SetText
000286  4639              MOV      r1,r7                 ;222
000288  4628              MOV      r0,r5                 ;222
00028a  f7fffffe          BL       TEXT_SetTextColor
00028e  497c              LDR      r1,|L8.1152|
000290  4628              MOV      r0,r5                 ;223
000292  f7fffffe          BL       TEXT_SetFont
000296  f6401115          MOV      r1,#0x915             ;225
00029a  6860              LDR      r0,[r4,#4]            ;225
00029c  f7fffffe          BL       WM_GetDialogItem
0002a0  4605              MOV      r5,r0                 ;225
0002a2  f7fffffe          BL       GUI_UC_SetEncodeUTF8
0002a6  78f2              LDRB     r2,[r6,#3]            ;227  ; day1
0002a8  4856              LDR      r0,|L8.1028|
0002aa  a17f              ADR      r1,|L8.1192|
0002ac  301c              ADDS     r0,r0,#0x1c           ;227
0002ae  f7fffffe          BL       __2sprintf
0002b2  4954              LDR      r1,|L8.1028|
0002b4  4628              MOV      r0,r5                 ;228
0002b6  311c              ADDS     r1,r1,#0x1c           ;228
0002b8  f7fffffe          BL       TEXT_SetText
0002bc  4639              MOV      r1,r7                 ;229
0002be  4628              MOV      r0,r5                 ;229
0002c0  f7fffffe          BL       TEXT_SetTextColor
0002c4  496e              LDR      r1,|L8.1152|
0002c6  4628              MOV      r0,r5                 ;230
0002c8  f7fffffe          BL       TEXT_SetFont
0002cc  f6401116          MOV      r1,#0x916             ;232
0002d0  6860              LDR      r0,[r4,#4]            ;232
0002d2  f7fffffe          BL       WM_GetDialogItem
0002d6  4605              MOV      r5,r0                 ;232
0002d8  f7fffffe          BL       GUI_UC_SetEncodeUTF8
0002dc  7932              LDRB     r2,[r6,#4]            ;234  ; day2
0002de  4849              LDR      r0,|L8.1028|
0002e0  a171              ADR      r1,|L8.1192|
0002e2  301c              ADDS     r0,r0,#0x1c           ;234
0002e4  f7fffffe          BL       __2sprintf
0002e8  4946              LDR      r1,|L8.1028|
0002ea  4628              MOV      r0,r5                 ;235
0002ec  311c              ADDS     r1,r1,#0x1c           ;235
0002ee  f7fffffe          BL       TEXT_SetText
0002f2  4639              MOV      r1,r7                 ;236
0002f4  4628              MOV      r0,r5                 ;236
0002f6  f7fffffe          BL       TEXT_SetTextColor
0002fa  4961              LDR      r1,|L8.1152|
0002fc  4628              MOV      r0,r5                 ;237
0002fe  f7fffffe          BL       TEXT_SetFont
000302  f6401117          MOV      r1,#0x917             ;239
000306  6860              LDR      r0,[r4,#4]            ;239
000308  f7fffffe          BL       WM_GetDialogItem
00030c  4605              MOV      r5,r0                 ;239
00030e  f7fffffe          BL       GUI_UC_SetEncodeUTF8
000312  7a32              LDRB     r2,[r6,#8]            ;241  ; code3
000314  483b              LDR      r0,|L8.1028|
000316  a164              ADR      r1,|L8.1192|
000318  301c              ADDS     r0,r0,#0x1c           ;241
00031a  f7fffffe          BL       __2sprintf
00031e  4939              LDR      r1,|L8.1028|
000320  4628              MOV      r0,r5                 ;242
000322  311c              ADDS     r1,r1,#0x1c           ;242
000324  f7fffffe          BL       TEXT_SetText
000328  4639              MOV      r1,r7                 ;243
00032a  4628              MOV      r0,r5                 ;243
00032c  f7fffffe          BL       TEXT_SetTextColor
000330  4953              LDR      r1,|L8.1152|
000332  4628              MOV      r0,r5                 ;244
000334  f7fffffe          BL       TEXT_SetFont
000338  f6401118          MOV      r1,#0x918             ;246
00033c  6860              LDR      r0,[r4,#4]            ;246
00033e  f7fffffe          BL       WM_GetDialogItem
000342  4605              MOV      r5,r0                 ;246
000344  f7fffffe          BL       GUI_UC_SetEncodeUTF8
000348  7a72              LDRB     r2,[r6,#9]            ;248  ; code4
00034a  482e              LDR      r0,|L8.1028|
00034c  a156              ADR      r1,|L8.1192|
00034e  301c              ADDS     r0,r0,#0x1c           ;248
000350  f7fffffe          BL       __2sprintf
000354  492b              LDR      r1,|L8.1028|
000356  4628              MOV      r0,r5                 ;249
000358  311c              ADDS     r1,r1,#0x1c           ;249
00035a  f7fffffe          BL       TEXT_SetText
00035e  4639              MOV      r1,r7                 ;250
000360  4628              MOV      r0,r5                 ;250
000362  f7fffffe          BL       TEXT_SetTextColor
000366  4946              LDR      r1,|L8.1152|
000368  4628              MOV      r0,r5                 ;251
00036a  f7fffffe          BL       TEXT_SetFont
00036e  f6401119          MOV      r1,#0x919             ;253
000372  6860              LDR      r0,[r4,#4]            ;253
000374  f7fffffe          BL       WM_GetDialogItem
000378  4605              MOV      r5,r0                 ;253
00037a  f7fffffe          BL       GUI_UC_SetEncodeUTF8
00037e  7ab2              LDRB     r2,[r6,#0xa]          ;255  ; code5
000380  4820              LDR      r0,|L8.1028|
000382  a149              ADR      r1,|L8.1192|
000384  301c              ADDS     r0,r0,#0x1c           ;255
000386  f7fffffe          BL       __2sprintf
00038a  491e              LDR      r1,|L8.1028|
00038c  4628              MOV      r0,r5                 ;256
00038e  311c              ADDS     r1,r1,#0x1c           ;256
000390  f7fffffe          BL       TEXT_SetText
000394  4639              MOV      r1,r7                 ;257
000396  4628              MOV      r0,r5                 ;257
000398  f7fffffe          BL       TEXT_SetTextColor
00039c  4938              LDR      r1,|L8.1152|
00039e  4628              MOV      r0,r5                 ;258
0003a0  f7fffffe          BL       TEXT_SetFont
0003a4  f640111a          MOV      r1,#0x91a             ;260
0003a8  6860              LDR      r0,[r4,#4]            ;260
0003aa  f7fffffe          BL       WM_GetDialogItem
0003ae  4605              MOV      r5,r0                 ;260
0003b0  f7fffffe          BL       GUI_UC_SetEncodeUTF8
0003b4  7af2              LDRB     r2,[r6,#0xb]          ;262  ; code6
0003b6  4813              LDR      r0,|L8.1028|
0003b8  a13b              ADR      r1,|L8.1192|
0003ba  301c              ADDS     r0,r0,#0x1c           ;262
0003bc  f7fffffe          BL       __2sprintf
0003c0  4910              LDR      r1,|L8.1028|
0003c2  4628              MOV      r0,r5                 ;263
0003c4  311c              ADDS     r1,r1,#0x1c           ;263
0003c6  f7fffffe          BL       TEXT_SetText
0003ca  4639              MOV      r1,r7                 ;264
0003cc  4628              MOV      r0,r5                 ;264
0003ce  f7fffffe          BL       TEXT_SetTextColor
0003d2  492b              LDR      r1,|L8.1152|
0003d4  4628              MOV      r0,r5                 ;265
0003d6  f7fffffe          BL       TEXT_SetFont
0003da  f640111b          MOV      r1,#0x91b             ;267
0003de  6860              LDR      r0,[r4,#4]            ;267
0003e0  f7fffffe          BL       WM_GetDialogItem
0003e4  4605              MOV      r5,r0                 ;267
0003e6  f7fffffe          BL       GUI_UC_SetEncodeUTF8
0003ea  7b32              LDRB     r2,[r6,#0xc]          ;269  ; code7
0003ec  4805              LDR      r0,|L8.1028|
0003ee  a12e              ADR      r1,|L8.1192|
0003f0  301c              ADDS     r0,r0,#0x1c           ;269
0003f2  f7fffffe          BL       __2sprintf
0003f6  4903              LDR      r1,|L8.1028|
0003f8  4628              MOV      r0,r5                 ;270
0003fa  311c              ADDS     r1,r1,#0x1c           ;270
0003fc  e056              B        |L8.1196|
0003fe  0000              DCW      0x0000
                  |L8.1024|
                          DCD      0x00bfffff
                  |L8.1028|
                          DCD      ||.data||
                  |L8.1032|
                          DCD      GUI_Fontsymbol
                  |L8.1036|
00040c  4a696e6b          DCB      "Jinko",0
000410  6f00    
000412  00                DCB      0
000413  00                DCB      0
                  |L8.1044|
                          DCD      GUI_FontHZ20S
                  |L8.1048|
000418  e7b3bbe7          DCB      231,179,187,231,187,159,228,191,161,230,129,175,0
00041c  bb9fe4bf
000420  a1e681af
000424  00      
000425  00                DCB      0
000426  00                DCB      0
000427  00                DCB      0
                  |L8.1064|
                          DCD      0x00ff8080
                  |L8.1068|
                          DCD      GUI_Fontset_font
                  |L8.1072|
000430  e4bbaae5          DCB      228,187,170,229,153,168,229,158,139,229,143,183,0
000434  99a8e59e
000438  8be58fb7
00043c  00      
00043d  00                DCB      0
00043e  00                DCB      0
00043f  00                DCB      0
                  |L8.1088|
000440  e8bdafe4          DCB      232,189,175,228,187,182,231,137,136,230,156,172,0
000444  bbb6e789
000448  88e69cac
00044c  00      
00044d  00                DCB      0
00044e  00                DCB      0
00044f  00                DCB      0
                  |L8.1104|
000450  e7a1ace4          DCB      231,161,172,228,187,182,231,137,136,230,156,172,0
000454  bbb6e789
000458  88e69cac
00045c  00      
00045d  00                DCB      0
00045e  00                DCB      0
00045f  00                DCB      0
                  |L8.1120|
000460  e7949fe4          DCB      231,148,159,228,186,167,230,151,165,230,156,159,0
000464  baa7e697
000468  a5e69c9f
00046c  00      
00046d  00                DCB      0
00046e  00                DCB      0
00046f  00                DCB      0
                  |L8.1136|
000470  e4bbaae5          DCB      228,187,170,229,153,168,231,188,150,229,143,183,0
000474  99a8e7bc
000478  96e58fb7
00047c  00      
00047d  00                DCB      0
00047e  00                DCB      0
00047f  00                DCB      0
                  |L8.1152|
                          DCD      GUI_Font24_1
                  |L8.1156|
000484  4a4b3535          DCB      "JK5530B",0
000488  33304200
                  |L8.1164|
00048c  5665723a          DCB      "Ver:1.3",0
000490  312e3300
                  |L8.1172|
000494  5665723a          DCB      "Ver:1.1",0
000498  312e3100
                  |L8.1180|
00049c  2d00              DCB      "-",0
00049e  00                DCB      0
00049f  00                DCB      0
                  |L8.1184|
0004a0  4100              DCB      "A",0
0004a2  00                DCB      0
0004a3  00                DCB      0
                  |L8.1188|
                          DCD      pass
                  |L8.1192|
0004a8  256400            DCB      "%d",0
0004ab  00                DCB      0
                  |L8.1196|
0004ac  f7fffffe          BL       TEXT_SetText
0004b0  4639              MOV      r1,r7                 ;271
0004b2  4628              MOV      r0,r5                 ;271
0004b4  f7fffffe          BL       TEXT_SetTextColor
0004b8  492a              LDR      r1,|L8.1380|
0004ba  4628              MOV      r0,r5                 ;272
0004bc  f7fffffe          BL       TEXT_SetFont
0004c0  f640111c          MOV      r1,#0x91c             ;274
0004c4  6860              LDR      r0,[r4,#4]            ;274
0004c6  f7fffffe          BL       WM_GetDialogItem
0004ca  4605              MOV      r5,r0                 ;274
0004cc  f7fffffe          BL       GUI_UC_SetEncodeUTF8
0004d0  7b72              LDRB     r2,[r6,#0xd]          ;276  ; code8
0004d2  f2af012c          ADR      r1,|L8.1192|
0004d6  4824              LDR      r0,|L8.1384|
0004d8  f7fffffe          BL       __2sprintf
0004dc  4922              LDR      r1,|L8.1384|
0004de  4628              MOV      r0,r5                 ;277
0004e0  f7fffffe          BL       TEXT_SetText
0004e4  4639              MOV      r1,r7                 ;278
0004e6  4628              MOV      r0,r5                 ;278
0004e8  f7fffffe          BL       TEXT_SetTextColor
0004ec  491d              LDR      r1,|L8.1380|
0004ee  4628              MOV      r0,r5                 ;279
0004f0  f7fffffe          BL       TEXT_SetFont
0004f4  f640111d          MOV      r1,#0x91d             ;281
0004f8  6860              LDR      r0,[r4,#4]            ;281
0004fa  f7fffffe          BL       WM_GetDialogItem
0004fe  4605              MOV      r5,r0                 ;281
000500  f7fffffe          BL       GUI_UC_SetEncodeUTF8
000504  79b2              LDRB     r2,[r6,#6]            ;283  ; code1
000506  f2af0160          ADR      r1,|L8.1192|
00050a  4817              LDR      r0,|L8.1384|
00050c  f7fffffe          BL       __2sprintf
000510  4915              LDR      r1,|L8.1384|
000512  4628              MOV      r0,r5                 ;284
000514  f7fffffe          BL       TEXT_SetText
000518  4639              MOV      r1,r7                 ;285
00051a  4628              MOV      r0,r5                 ;285
00051c  f7fffffe          BL       TEXT_SetTextColor
000520  4910              LDR      r1,|L8.1380|
000522  4628              MOV      r0,r5                 ;286
000524  f7fffffe          BL       TEXT_SetFont
000528  f640111e          MOV      r1,#0x91e             ;288
00052c  6860              LDR      r0,[r4,#4]            ;288
00052e  f7fffffe          BL       WM_GetDialogItem
000532  4604              MOV      r4,r0                 ;288
000534  f7fffffe          BL       GUI_UC_SetEncodeUTF8
000538  79f2              LDRB     r2,[r6,#7]            ;290  ; code2
00053a  f2af0194          ADR      r1,|L8.1192|
00053e  480a              LDR      r0,|L8.1384|
000540  f7fffffe          BL       __2sprintf
000544  4908              LDR      r1,|L8.1384|
000546  4620              MOV      r0,r4                 ;291
000548  f7fffffe          BL       TEXT_SetText
00054c  4639              MOV      r1,r7                 ;292
00054e  4620              MOV      r0,r4                 ;292
000550  f7fffffe          BL       TEXT_SetTextColor
000554  4620              MOV      r0,r4                 ;293
000556  e8bd41f0          POP      {r4-r8,lr}            ;293
00055a  4902              LDR      r1,|L8.1380|
00055c  f7ffbffe          B.W      TEXT_SetFont
                  |L8.1376|
;;;304            break;
;;;305      }
;;;306    }
000560  e8bd81f0          POP      {r4-r8,pc}
;;;307    
                          ENDP

                  |L8.1380|
                          DCD      GUI_Font24_1
                  |L8.1384|
                          DCD      ||.data||+0x1c

                          AREA ||.constdata||, DATA, READONLY, ALIGN=2

                  _aDialogCreate7
                          DCD      WINDOW_CreateIndirect
                          DCD      ||.conststring||
000008  08980000          DCW      0x0898,0x0000
00000c  000001e0          DCW      0x0000,0x01e0
000010  01100000          DCW      0x0110,0x0000
                          DCD      0x00000000
                          DCD      0x00000000
                          DCD      TEXT_CreateIndirect
                          DCD      ||.conststring||+0x8
000024  0899008c          DCW      0x0899,0x008c
000028  007d000c          DCW      0x007d,0x000c
00002c  00140000          DCW      0x0014,0x0000
                          DCD      0x00000000
                          DCD      0x00000000
                          DCD      TEXT_CreateIndirect
                          DCD      ||.conststring||+0x8
000040  089a0098          DCW      0x089a,0x0098
000044  007d000c          DCW      0x007d,0x000c
000048  00140000          DCW      0x0014,0x0000
                          DCD      0x00000000
                          DCD      0x00000000
                          DCD      TEXT_CreateIndirect
                          DCD      ||.conststring||+0x8
00005c  089b00a4          DCW      0x089b,0x00a4
000060  007d000c          DCW      0x007d,0x000c
000064  00140000          DCW      0x0014,0x0000
                          DCD      0x00000000
                          DCD      0x00000000
                          DCD      TEXT_CreateIndirect
                          DCD      ||.conststring||+0x8
000078  089c00b0          DCW      0x089c,0x00b0
00007c  007d000c          DCW      0x007d,0x000c
000080  00140000          DCW      0x0014,0x0000
                          DCD      0x00000000
                          DCD      0x00000000
                          DCD      TEXT_CreateIndirect
                          DCD      ||.conststring||+0x8
000094  089d00c8          DCW      0x089d,0x00c8
000098  007d000c          DCW      0x007d,0x000c
00009c  00140000          DCW      0x0014,0x0000
                          DCD      0x00000000
                          DCD      0x00000000
                          DCD      TEXT_CreateIndirect
                          DCD      ||.conststring||+0x8
0000b0  089e00d4          DCW      0x089e,0x00d4
0000b4  007d000c          DCW      0x007d,0x000c
0000b8  00140000          DCW      0x0014,0x0000
                          DCD      0x00000000
                          DCD      0x00000000
                          DCD      TEXT_CreateIndirect
                          DCD      ||.conststring||+0x8
0000cc  091500ec          DCW      0x0915,0x00ec
0000d0  007d000c          DCW      0x007d,0x000c
0000d4  00140000          DCW      0x0014,0x0000
                          DCD      0x00000000
                          DCD      0x00000000
                          DCD      TEXT_CreateIndirect
                          DCD      ||.conststring||+0x8
0000e8  091600f8          DCW      0x0916,0x00f8
0000ec  007d000c          DCW      0x007d,0x000c
0000f0  00140000          DCW      0x0014,0x0000
                          DCD      0x00000000
                          DCD      0x00000000
                          DCD      TEXT_CreateIndirect
                          DCD      ||.conststring||+0x8
000104  091700b0          DCW      0x0917,0x00b0
000108  0096000c          DCW      0x0096,0x000c
00010c  00140000          DCW      0x0014,0x0000
                          DCD      0x00000000
                          DCD      0x00000000
                          DCD      TEXT_CreateIndirect
                          DCD      ||.conststring||+0x8
000120  091800bc          DCW      0x0918,0x00bc
000124  0096000c          DCW      0x0096,0x000c
000128  00140000          DCW      0x0014,0x0000
                          DCD      0x00000000
                          DCD      0x00000000
                          DCD      TEXT_CreateIndirect
                          DCD      ||.conststring||+0x8
00013c  091900c8          DCW      0x0919,0x00c8
000140  0096000c          DCW      0x0096,0x000c
000144  00140000          DCW      0x0014,0x0000
                          DCD      0x00000000
                          DCD      0x00000000
                          DCD      TEXT_CreateIndirect
                          DCD      ||.conststring||+0x8
000158  091a00d4          DCW      0x091a,0x00d4
00015c  0096000c          DCW      0x0096,0x000c
000160  00140000          DCW      0x0014,0x0000
                          DCD      0x00000000
                          DCD      0x00000000
                          DCD      TEXT_CreateIndirect
                          DCD      ||.conststring||+0x8
000174  091b00e0          DCW      0x091b,0x00e0
000178  0096000c          DCW      0x0096,0x000c
00017c  00140000          DCW      0x0014,0x0000
                          DCD      0x00000000
                          DCD      0x00000000
                          DCD      TEXT_CreateIndirect
                          DCD      ||.conststring||+0x8
000190  091c00ec          DCW      0x091c,0x00ec
000194  0096000c          DCW      0x0096,0x000c
000198  00140000          DCW      0x0014,0x0000
                          DCD      0x00000000
                          DCD      0x00000000
                          DCD      TEXT_CreateIndirect
                          DCD      ||.conststring||+0x8
0001ac  091d008c          DCW      0x091d,0x008c
0001b0  0096000c          DCW      0x0096,0x000c
0001b4  00140000          DCW      0x0014,0x0000
                          DCD      0x00000000
                          DCD      0x00000000
                          DCD      TEXT_CreateIndirect
                          DCD      ||.conststring||+0x8
0001c8  091e0098          DCW      0x091e,0x0098
0001cc  0096000c          DCW      0x0096,0x000c
0001d0  00140000          DCW      0x0014,0x0000
                          DCD      0x00000000
                          DCD      0x00000000

                          AREA ||.conststring||, DATA, READONLY, MERGE=1, STRINGS, ALIGN=0

000000  53595349          DCB      "SYSINFO",0
000004  4e464f00
000008  54657874          DCB      "Text",0
00000c  00      

                          AREA ||.data||, DATA, ALIGN=2

                  info_set
000000  2f                DCB      0x2f
                  month1
000001  00                DCB      0x00
                  month2
000002  00                DCB      0x00
                  day1
000003  00                DCB      0x00
                  day2
000004  00                DCB      0x00
                  admin
000005  00                DCB      0x00
                  code1
000006  00                DCB      0x00
                  code2
000007  00                DCB      0x00
                  code3
000008  00                DCB      0x00
                  code4
000009  00                DCB      0x00
                  code5
00000a  00                DCB      0x00
                  code6
00000b  00                DCB      0x00
                  code7
00000c  00                DCB      0x00
                  code8
00000d  00                DCB      0x00
                  year1
00000e  0000              DCW      0x0000
                  year2
000010  0000              DCW      0x0000
                  year3
000012  0000              DCW      0x0000
                  year4
000014  0000              DCW      0x0000
000016  0000              DCB      0x00,0x00
                  hWinsysinfo
                          DCD      0x00000000
                  buf
                          DCD      0x00000000
000020  00                DCB      0x00
                  |symbol_number.48|
000021  000000            DCB      0x00,0x00,0x00
000024  0000              DCB      0x00,0x00

;*** Start embedded assembler ***

#line 1 "..\\APP\\sysinfo.c"
	AREA ||.rev16_text||, CODE, READONLY
	THUMB
	EXPORT |__asm___9_sysinfo_c_info_set____REV16|
#line 114 "D:\\Keil\\ARM\\CMSIS\\Include\\core_cmInstr.h"
|__asm___9_sysinfo_c_info_set____REV16| PROC
#line 115

 rev16 r0, r0
 bx lr
	ENDP
	AREA ||.revsh_text||, CODE, READONLY
	THUMB
	EXPORT |__asm___9_sysinfo_c_info_set____REVSH|
#line 128
|__asm___9_sysinfo_c_info_set____REVSH| PROC
#line 129

 revsh r0, r0
 bx lr
	ENDP

;*** End   embedded assembler ***
